Archive member included to satisfy reference by file (symbol)

K:/embedded/General Tools/General Tools/mingw64/bin/../lib/gcc/x86_64-w64-mingw32/6.2.0/../../../../x86_64-w64-mingw32/lib/../lib/libwinmm.a(dmces00151.o)
                              FreeRTOS_Source\portable\MSVC-MingW\port.o (__imp_timeGetDevCaps)
K:/embedded/General Tools/General Tools/mingw64/bin/../lib/gcc/x86_64-w64-mingw32/6.2.0/../../../../x86_64-w64-mingw32/lib/../lib/libwinmm.a(dmces00150.o)
                              FreeRTOS_Source\portable\MSVC-MingW\port.o (__imp_timeEndPeriod)
K:/embedded/General Tools/General Tools/mingw64/bin/../lib/gcc/x86_64-w64-mingw32/6.2.0/../../../../x86_64-w64-mingw32/lib/../lib/libwinmm.a(dmces00149.o)
                              FreeRTOS_Source\portable\MSVC-MingW\port.o (__imp_timeBeginPeriod)
K:/embedded/General Tools/General Tools/mingw64/bin/../lib/gcc/x86_64-w64-mingw32/6.2.0/../../../../x86_64-w64-mingw32/lib/../lib/libwinmm.a(dmceh.o)
                              K:/embedded/General Tools/General Tools/mingw64/bin/../lib/gcc/x86_64-w64-mingw32/6.2.0/../../../../x86_64-w64-mingw32/lib/../lib/libwinmm.a(dmces00151.o) (_head_lib64_libwinmm_a)
K:/embedded/General Tools/General Tools/mingw64/bin/../lib/gcc/x86_64-w64-mingw32/6.2.0/../../../../x86_64-w64-mingw32/lib/../lib/libwinmm.a(dmcet.o)
                              K:/embedded/General Tools/General Tools/mingw64/bin/../lib/gcc/x86_64-w64-mingw32/6.2.0/../../../../x86_64-w64-mingw32/lib/../lib/libwinmm.a(dmceh.o) (__lib64_libwinmm_a_iname)
K:/embedded/General Tools/General Tools/mingw64/bin/../lib/gcc/x86_64-w64-mingw32/6.2.0/../../../../x86_64-w64-mingw32/lib/../lib/libmingw32.a(lib64_libmingw32_a-atonexit.o)
                              K:/embedded/General Tools/General Tools/mingw64/bin/../lib/gcc/x86_64-w64-mingw32/6.2.0/crtbegin.o (atexit)
K:/embedded/General Tools/General Tools/mingw64/bin/../lib/gcc/x86_64-w64-mingw32/6.2.0/../../../../x86_64-w64-mingw32/lib/../lib/libmingw32.a(lib64_libmingw32_a-gccmain.o)
                              K:/embedded/General Tools/General Tools/mingw64/bin/../lib/gcc/x86_64-w64-mingw32/6.2.0/../../../../x86_64-w64-mingw32/lib/../lib/crt2.o (__main)
K:/embedded/General Tools/General Tools/mingw64/bin/../lib/gcc/x86_64-w64-mingw32/6.2.0/../../../../x86_64-w64-mingw32/lib/../lib/libmingw32.a(lib64_libmingw32_a-natstart.o)
                              K:/embedded/General Tools/General Tools/mingw64/bin/../lib/gcc/x86_64-w64-mingw32/6.2.0/../../../../x86_64-w64-mingw32/lib/../lib/crt2.o (__native_startup_lock)
K:/embedded/General Tools/General Tools/mingw64/bin/../lib/gcc/x86_64-w64-mingw32/6.2.0/../../../../x86_64-w64-mingw32/lib/../lib/libmingw32.a(lib64_libmingw32_a-wildcard.o)
                              K:/embedded/General Tools/General Tools/mingw64/bin/../lib/gcc/x86_64-w64-mingw32/6.2.0/../../../../x86_64-w64-mingw32/lib/../lib/crt2.o (_dowildcard)
K:/embedded/General Tools/General Tools/mingw64/bin/../lib/gcc/x86_64-w64-mingw32/6.2.0/../../../../x86_64-w64-mingw32/lib/../lib/libmingw32.a(lib64_libmingw32_a-charmax.o)
                              K:/embedded/General Tools/General Tools/mingw64/bin/../lib/gcc/x86_64-w64-mingw32/6.2.0/../../../../x86_64-w64-mingw32/lib/../lib/crt2.o (mingw_initcharmax)
K:/embedded/General Tools/General Tools/mingw64/bin/../lib/gcc/x86_64-w64-mingw32/6.2.0/../../../../x86_64-w64-mingw32/lib/../lib/libmingw32.a(lib64_libmingw32_a-dllargv.o)
                              K:/embedded/General Tools/General Tools/mingw64/bin/../lib/gcc/x86_64-w64-mingw32/6.2.0/../../../../x86_64-w64-mingw32/lib/../lib/crt2.o (_setargv)
K:/embedded/General Tools/General Tools/mingw64/bin/../lib/gcc/x86_64-w64-mingw32/6.2.0/../../../../x86_64-w64-mingw32/lib/../lib/libmingw32.a(lib64_libmingw32_a-gs_support.o)
                              K:/embedded/General Tools/General Tools/mingw64/bin/../lib/gcc/x86_64-w64-mingw32/6.2.0/../../../../x86_64-w64-mingw32/lib/../lib/crt2.o (__security_init_cookie)
K:/embedded/General Tools/General Tools/mingw64/bin/../lib/gcc/x86_64-w64-mingw32/6.2.0/../../../../x86_64-w64-mingw32/lib/../lib/libmingw32.a(lib64_libmingw32_a-_newmode.o)
                              K:/embedded/General Tools/General Tools/mingw64/bin/../lib/gcc/x86_64-w64-mingw32/6.2.0/../../../../x86_64-w64-mingw32/lib/../lib/crt2.o (_newmode)
K:/embedded/General Tools/General Tools/mingw64/bin/../lib/gcc/x86_64-w64-mingw32/6.2.0/../../../../x86_64-w64-mingw32/lib/../lib/libmingw32.a(lib64_libmingw32_a-tlssup.o)
                              K:/embedded/General Tools/General Tools/mingw64/bin/../lib/gcc/x86_64-w64-mingw32/6.2.0/../../../../x86_64-w64-mingw32/lib/../lib/crt2.o (mingw_initltssuo_force)
K:/embedded/General Tools/General Tools/mingw64/bin/../lib/gcc/x86_64-w64-mingw32/6.2.0/../../../../x86_64-w64-mingw32/lib/../lib/libmingw32.a(lib64_libmingw32_a-cinitexe.o)
                              K:/embedded/General Tools/General Tools/mingw64/bin/../lib/gcc/x86_64-w64-mingw32/6.2.0/../../../../x86_64-w64-mingw32/lib/../lib/crt2.o (__xc_z)
K:/embedded/General Tools/General Tools/mingw64/bin/../lib/gcc/x86_64-w64-mingw32/6.2.0/../../../../x86_64-w64-mingw32/lib/../lib/libmingw32.a(lib64_libmingw32_a-merr.o)
                              K:/embedded/General Tools/General Tools/mingw64/bin/../lib/gcc/x86_64-w64-mingw32/6.2.0/../../../../x86_64-w64-mingw32/lib/../lib/crt2.o (__mingw_setusermatherr)
K:/embedded/General Tools/General Tools/mingw64/bin/../lib/gcc/x86_64-w64-mingw32/6.2.0/../../../../x86_64-w64-mingw32/lib/../lib/libmingw32.a(lib64_libmingw32_a-CRT_fp10.o)
                              K:/embedded/General Tools/General Tools/mingw64/bin/../lib/gcc/x86_64-w64-mingw32/6.2.0/../../../../x86_64-w64-mingw32/lib/../lib/crt2.o (_fpreset)
K:/embedded/General Tools/General Tools/mingw64/bin/../lib/gcc/x86_64-w64-mingw32/6.2.0/../../../../x86_64-w64-mingw32/lib/../lib/libmingw32.a(lib64_libmingw32_a-mingw_helpers.o)
                              K:/embedded/General Tools/General Tools/mingw64/bin/../lib/gcc/x86_64-w64-mingw32/6.2.0/../../../../x86_64-w64-mingw32/lib/../lib/libmingw32.a(lib64_libmingw32_a-atonexit.o) (_decode_pointer)
K:/embedded/General Tools/General Tools/mingw64/bin/../lib/gcc/x86_64-w64-mingw32/6.2.0/../../../../x86_64-w64-mingw32/lib/../lib/libmingw32.a(lib64_libmingw32_a-pseudo-reloc.o)
                              K:/embedded/General Tools/General Tools/mingw64/bin/../lib/gcc/x86_64-w64-mingw32/6.2.0/../../../../x86_64-w64-mingw32/lib/../lib/crt2.o (_pei386_runtime_relocator)
K:/embedded/General Tools/General Tools/mingw64/bin/../lib/gcc/x86_64-w64-mingw32/6.2.0/../../../../x86_64-w64-mingw32/lib/../lib/libmingw32.a(lib64_libmingw32_a-xtxtmode.o)
                              K:/embedded/General Tools/General Tools/mingw64/bin/../lib/gcc/x86_64-w64-mingw32/6.2.0/../../../../x86_64-w64-mingw32/lib/../lib/crt2.o (_fmode)
K:/embedded/General Tools/General Tools/mingw64/bin/../lib/gcc/x86_64-w64-mingw32/6.2.0/../../../../x86_64-w64-mingw32/lib/../lib/libmingw32.a(lib64_libmingw32_a-crt_handler.o)
                              K:/embedded/General Tools/General Tools/mingw64/bin/../lib/gcc/x86_64-w64-mingw32/6.2.0/../../../../x86_64-w64-mingw32/lib/../lib/crt2.o (__mingw_init_ehandler)
K:/embedded/General Tools/General Tools/mingw64/bin/../lib/gcc/x86_64-w64-mingw32/6.2.0/../../../../x86_64-w64-mingw32/lib/../lib/libmingw32.a(lib64_libmingw32_a-tlsthrd.o)
                              K:/embedded/General Tools/General Tools/mingw64/bin/../lib/gcc/x86_64-w64-mingw32/6.2.0/../../../../x86_64-w64-mingw32/lib/../lib/libmingw32.a(lib64_libmingw32_a-tlssup.o) (__mingw_TLScallback)
K:/embedded/General Tools/General Tools/mingw64/bin/../lib/gcc/x86_64-w64-mingw32/6.2.0/../../../../x86_64-w64-mingw32/lib/../lib/libmingw32.a(lib64_libmingw32_a-tlsmcrt.o)
                              K:/embedded/General Tools/General Tools/mingw64/bin/../lib/gcc/x86_64-w64-mingw32/6.2.0/../../../../x86_64-w64-mingw32/lib/../lib/libmingw32.a(lib64_libmingw32_a-tlssup.o) (_CRT_MT)
K:/embedded/General Tools/General Tools/mingw64/bin/../lib/gcc/x86_64-w64-mingw32/6.2.0/../../../../x86_64-w64-mingw32/lib/../lib/libmingw32.a(lib64_libmingw32_a-pseudo-reloc-list.o)
                              K:/embedded/General Tools/General Tools/mingw64/bin/../lib/gcc/x86_64-w64-mingw32/6.2.0/../../../../x86_64-w64-mingw32/lib/../lib/libmingw32.a(lib64_libmingw32_a-pseudo-reloc.o) (__RUNTIME_PSEUDO_RELOC_LIST__)
K:/embedded/General Tools/General Tools/mingw64/bin/../lib/gcc/x86_64-w64-mingw32/6.2.0/../../../../x86_64-w64-mingw32/lib/../lib/libmingw32.a(lib64_libmingw32_a-pesect.o)
                              K:/embedded/General Tools/General Tools/mingw64/bin/../lib/gcc/x86_64-w64-mingw32/6.2.0/../../../../x86_64-w64-mingw32/lib/../lib/libmingw32.a(lib64_libmingw32_a-crt_handler.o) (_FindPESectionByName)
K:/embedded/General Tools/General Tools/mingw64/bin/../lib/gcc/x86_64-w64-mingw32/6.2.0/libgcc.a(_chkstk_ms.o)
                              main.o (___chkstk_ms)
K:/embedded/General Tools/General Tools/mingw64/bin/../lib/gcc/x86_64-w64-mingw32/6.2.0/libgcc.a(_ctors.o)
                              K:/embedded/General Tools/General Tools/mingw64/bin/../lib/gcc/x86_64-w64-mingw32/6.2.0/../../../../x86_64-w64-mingw32/lib/../lib/libmingw32.a(lib64_libmingw32_a-gccmain.o) (__DTOR_LIST__)
K:/embedded/General Tools/General Tools/mingw64/bin/../lib/gcc/x86_64-w64-mingw32/6.2.0/../../../../x86_64-w64-mingw32/lib/../lib/libmingwex.a(lib64_libmingwex_a-mingw_matherr.o)
                              K:/embedded/General Tools/General Tools/mingw64/bin/../lib/gcc/x86_64-w64-mingw32/6.2.0/../../../../x86_64-w64-mingw32/lib/../lib/crt2.o (_MINGW_INSTALL_DEBUG_MATHERR)
K:/embedded/General Tools/General Tools/mingw64/bin/../lib/gcc/x86_64-w64-mingw32/6.2.0/../../../../x86_64-w64-mingw32/lib/../lib/libmsvcrt.a(dekes01240.o)
                              K:/embedded/General Tools/General Tools/mingw64/bin/../lib/gcc/x86_64-w64-mingw32/6.2.0/../../../../x86_64-w64-mingw32/lib/../lib/libmingw32.a(lib64_libmingw32_a-pseudo-reloc.o) (vfprintf)
K:/embedded/General Tools/General Tools/mingw64/bin/../lib/gcc/x86_64-w64-mingw32/6.2.0/../../../../x86_64-w64-mingw32/lib/../lib/libmsvcrt.a(dekes01208.o)
                              FreeRTOS+Trace Recorder\trcSnapshotRecorder.o (strncmp)
K:/embedded/General Tools/General Tools/mingw64/bin/../lib/gcc/x86_64-w64-mingw32/6.2.0/../../../../x86_64-w64-mingw32/lib/../lib/libmsvcrt.a(dekes01205.o)
                              K:/embedded/General Tools/General Tools/mingw64/bin/../lib/gcc/x86_64-w64-mingw32/6.2.0/../../../../x86_64-w64-mingw32/lib/../lib/crt2.o (strlen)
K:/embedded/General Tools/General Tools/mingw64/bin/../lib/gcc/x86_64-w64-mingw32/6.2.0/../../../../x86_64-w64-mingw32/lib/../lib/libmsvcrt.a(dekes01198.o)
                              Standard_Demo_Tasks\MessageBufferAMP.o (strcmp)
K:/embedded/General Tools/General Tools/mingw64/bin/../lib/gcc/x86_64-w64-mingw32/6.2.0/../../../../x86_64-w64-mingw32/lib/../lib/libmsvcrt.a(dekes01189.o)
                              Standard_Demo_Tasks\MessageBufferAMP.o (sprintf)
K:/embedded/General Tools/General Tools/mingw64/bin/../lib/gcc/x86_64-w64-mingw32/6.2.0/../../../../x86_64-w64-mingw32/lib/../lib/libmsvcrt.a(dekes01184.o)
                              K:/embedded/General Tools/General Tools/mingw64/bin/../lib/gcc/x86_64-w64-mingw32/6.2.0/../../../../x86_64-w64-mingw32/lib/../lib/libmingw32.a(lib64_libmingw32_a-crt_handler.o) (signal)
K:/embedded/General Tools/General Tools/mingw64/bin/../lib/gcc/x86_64-w64-mingw32/6.2.0/../../../../x86_64-w64-mingw32/lib/../lib/libmsvcrt.a(dekes01183.o)
                              main.o (setvbuf)
K:/embedded/General Tools/General Tools/mingw64/bin/../lib/gcc/x86_64-w64-mingw32/6.2.0/../../../../x86_64-w64-mingw32/lib/../lib/libmsvcrt.a(dekes01173.o)
                              main_full.o (rand)
K:/embedded/General Tools/General Tools/mingw64/bin/../lib/gcc/x86_64-w64-mingw32/6.2.0/../../../../x86_64-w64-mingw32/lib/../lib/libmsvcrt.a(dekes01167.o)
                              FreeRTOS_Source\portable\MSVC-MingW\port.o (puts)
K:/embedded/General Tools/General Tools/mingw64/bin/../lib/gcc/x86_64-w64-mingw32/6.2.0/../../../../x86_64-w64-mingw32/lib/../lib/libmsvcrt.a(dekes01166.o)
                              main_task4.o (putchar)
K:/embedded/General Tools/General Tools/mingw64/bin/../lib/gcc/x86_64-w64-mingw32/6.2.0/../../../../x86_64-w64-mingw32/lib/../lib/libmsvcrt.a(dekes01163.o)
                              main_full.o (printf)
K:/embedded/General Tools/General Tools/mingw64/bin/../lib/gcc/x86_64-w64-mingw32/6.2.0/../../../../x86_64-w64-mingw32/lib/../lib/libmsvcrt.a(dekes01156.o)
                              FreeRTOS+Trace Recorder\trcSnapshotRecorder.o (memset)
K:/embedded/General Tools/General Tools/mingw64/bin/../lib/gcc/x86_64-w64-mingw32/6.2.0/../../../../x86_64-w64-mingw32/lib/../lib/libmsvcrt.a(dekes01154.o)
                              K:/embedded/General Tools/General Tools/mingw64/bin/../lib/gcc/x86_64-w64-mingw32/6.2.0/../../../../x86_64-w64-mingw32/lib/../lib/crt2.o (memcpy)
K:/embedded/General Tools/General Tools/mingw64/bin/../lib/gcc/x86_64-w64-mingw32/6.2.0/../../../../x86_64-w64-mingw32/lib/../lib/libmsvcrt.a(dekes01153.o)
                              Standard_Demo_Tasks\MessageBufferDemo.o (memcmp)
K:/embedded/General Tools/General Tools/mingw64/bin/../lib/gcc/x86_64-w64-mingw32/6.2.0/../../../../x86_64-w64-mingw32/lib/../lib/libmsvcrt.a(dekes01146.o)
                              K:/embedded/General Tools/General Tools/mingw64/bin/../lib/gcc/x86_64-w64-mingw32/6.2.0/../../../../x86_64-w64-mingw32/lib/../lib/crt2.o (malloc)
K:/embedded/General Tools/General Tools/mingw64/bin/../lib/gcc/x86_64-w64-mingw32/6.2.0/../../../../x86_64-w64-mingw32/lib/../lib/libmsvcrt.a(dekes01099.o)
                              main.o (fwrite)
K:/embedded/General Tools/General Tools/mingw64/bin/../lib/gcc/x86_64-w64-mingw32/6.2.0/../../../../x86_64-w64-mingw32/lib/../lib/libmsvcrt.a(dekes01087.o)
                              K:/embedded/General Tools/General Tools/mingw64/bin/../lib/gcc/x86_64-w64-mingw32/6.2.0/../../../../x86_64-w64-mingw32/lib/../lib/libmingw32.a(lib64_libmingw32_a-tlsthrd.o) (free)
K:/embedded/General Tools/General Tools/mingw64/bin/../lib/gcc/x86_64-w64-mingw32/6.2.0/../../../../x86_64-w64-mingw32/lib/../lib/libmsvcrt.a(dekes01080.o)
                              K:/embedded/General Tools/General Tools/mingw64/bin/../lib/gcc/x86_64-w64-mingw32/6.2.0/../../../../x86_64-w64-mingw32/lib/../lib/libmingw32.a(lib64_libmingw32_a-merr.o) (fprintf)
K:/embedded/General Tools/General Tools/mingw64/bin/../lib/gcc/x86_64-w64-mingw32/6.2.0/../../../../x86_64-w64-mingw32/lib/../lib/libmsvcrt.a(dekes01078.o)
                              main.o (fopen)
K:/embedded/General Tools/General Tools/mingw64/bin/../lib/gcc/x86_64-w64-mingw32/6.2.0/../../../../x86_64-w64-mingw32/lib/../lib/libmsvcrt.a(dekes01068.o)
                              main_blinky.o (fflush)
K:/embedded/General Tools/General Tools/mingw64/bin/../lib/gcc/x86_64-w64-mingw32/6.2.0/../../../../x86_64-w64-mingw32/lib/../lib/libmsvcrt.a(dekes01065.o)
                              main.o (fclose)
K:/embedded/General Tools/General Tools/mingw64/bin/../lib/gcc/x86_64-w64-mingw32/6.2.0/../../../../x86_64-w64-mingw32/lib/../lib/libmsvcrt.a(dekes01061.o)
                              K:/embedded/General Tools/General Tools/mingw64/bin/../lib/gcc/x86_64-w64-mingw32/6.2.0/../../../../x86_64-w64-mingw32/lib/../lib/crt2.o (exit)
K:/embedded/General Tools/General Tools/mingw64/bin/../lib/gcc/x86_64-w64-mingw32/6.2.0/../../../../x86_64-w64-mingw32/lib/../lib/libmsvcrt.a(dekes01048.o)
                              K:/embedded/General Tools/General Tools/mingw64/bin/../lib/gcc/x86_64-w64-mingw32/6.2.0/../../../../x86_64-w64-mingw32/lib/../lib/libmingw32.a(lib64_libmingw32_a-tlsthrd.o) (calloc)
K:/embedded/General Tools/General Tools/mingw64/bin/../lib/gcc/x86_64-w64-mingw32/6.2.0/../../../../x86_64-w64-mingw32/lib/../lib/libmsvcrt.a(dekes01028.o)
                              K:/embedded/General Tools/General Tools/mingw64/bin/../lib/gcc/x86_64-w64-mingw32/6.2.0/../../../../x86_64-w64-mingw32/lib/../lib/libmingw32.a(lib64_libmingw32_a-gs_support.o) (abort)
K:/embedded/General Tools/General Tools/mingw64/bin/../lib/gcc/x86_64-w64-mingw32/6.2.0/../../../../x86_64-w64-mingw32/lib/../lib/libmsvcrt.a(dekes00820.o)
                              K:/embedded/General Tools/General Tools/mingw64/bin/../lib/gcc/x86_64-w64-mingw32/6.2.0/../../../../x86_64-w64-mingw32/lib/../lib/libmingw32.a(lib64_libmingw32_a-atonexit.o) (_unlock)
K:/embedded/General Tools/General Tools/mingw64/bin/../lib/gcc/x86_64-w64-mingw32/6.2.0/../../../../x86_64-w64-mingw32/lib/../lib/libmsvcrt.a(dekes00611.o)
                              K:/embedded/General Tools/General Tools/mingw64/bin/../lib/gcc/x86_64-w64-mingw32/6.2.0/../../../../x86_64-w64-mingw32/lib/../lib/libmingw32.a(lib64_libmingw32_a-atonexit.o) (__imp__onexit)
K:/embedded/General Tools/General Tools/mingw64/bin/../lib/gcc/x86_64-w64-mingw32/6.2.0/../../../../x86_64-w64-mingw32/lib/../lib/libmsvcrt.a(dekes00438.o)
                              K:/embedded/General Tools/General Tools/mingw64/bin/../lib/gcc/x86_64-w64-mingw32/6.2.0/../../../../x86_64-w64-mingw32/lib/../lib/libmingw32.a(lib64_libmingw32_a-atonexit.o) (_lock)
K:/embedded/General Tools/General Tools/mingw64/bin/../lib/gcc/x86_64-w64-mingw32/6.2.0/../../../../x86_64-w64-mingw32/lib/../lib/libmsvcrt.a(dekes00330.o)
                              K:/embedded/General Tools/General Tools/mingw64/bin/../lib/gcc/x86_64-w64-mingw32/6.2.0/../../../../x86_64-w64-mingw32/lib/../lib/crt2.o (_initterm)
K:/embedded/General Tools/General Tools/mingw64/bin/../lib/gcc/x86_64-w64-mingw32/6.2.0/../../../../x86_64-w64-mingw32/lib/../lib/libmsvcrt.a(dekes00252.o)
                              K:/embedded/General Tools/General Tools/mingw64/bin/../lib/gcc/x86_64-w64-mingw32/6.2.0/../../../../x86_64-w64-mingw32/lib/../lib/crt2.o (__imp__fmode)
K:/embedded/General Tools/General Tools/mingw64/bin/../lib/gcc/x86_64-w64-mingw32/6.2.0/../../../../x86_64-w64-mingw32/lib/../lib/libmsvcrt.a(dekes00141.o)
                              K:/embedded/General Tools/General Tools/mingw64/bin/../lib/gcc/x86_64-w64-mingw32/6.2.0/../../../../x86_64-w64-mingw32/lib/../lib/crt2.o (_cexit)
K:/embedded/General Tools/General Tools/mingw64/bin/../lib/gcc/x86_64-w64-mingw32/6.2.0/../../../../x86_64-w64-mingw32/lib/../lib/libmsvcrt.a(dekes00123.o)
                              K:/embedded/General Tools/General Tools/mingw64/bin/../lib/gcc/x86_64-w64-mingw32/6.2.0/../../../../x86_64-w64-mingw32/lib/../lib/crt2.o (_amsg_exit)
K:/embedded/General Tools/General Tools/mingw64/bin/../lib/gcc/x86_64-w64-mingw32/6.2.0/../../../../x86_64-w64-mingw32/lib/../lib/libmsvcrt.a(dekes00116.o)
                              K:/embedded/General Tools/General Tools/mingw64/bin/../lib/gcc/x86_64-w64-mingw32/6.2.0/../../../../x86_64-w64-mingw32/lib/../lib/crt2.o (__imp__acmdln)
K:/embedded/General Tools/General Tools/mingw64/bin/../lib/gcc/x86_64-w64-mingw32/6.2.0/../../../../x86_64-w64-mingw32/lib/../lib/libmsvcrt.a(dekes00099.o)
                              K:/embedded/General Tools/General Tools/mingw64/bin/../lib/gcc/x86_64-w64-mingw32/6.2.0/../../../../x86_64-w64-mingw32/lib/../lib/libmingw32.a(lib64_libmingw32_a-merr.o) (__setusermatherr)
K:/embedded/General Tools/General Tools/mingw64/bin/../lib/gcc/x86_64-w64-mingw32/6.2.0/../../../../x86_64-w64-mingw32/lib/../lib/libmsvcrt.a(dekes00097.o)
                              K:/embedded/General Tools/General Tools/mingw64/bin/../lib/gcc/x86_64-w64-mingw32/6.2.0/../../../../x86_64-w64-mingw32/lib/../lib/crt2.o (__set_app_type)
K:/embedded/General Tools/General Tools/mingw64/bin/../lib/gcc/x86_64-w64-mingw32/6.2.0/../../../../x86_64-w64-mingw32/lib/../lib/libmsvcrt.a(dekes00091.o)
                              K:/embedded/General Tools/General Tools/mingw64/bin/../lib/gcc/x86_64-w64-mingw32/6.2.0/../../../../x86_64-w64-mingw32/lib/../lib/libmingw32.a(lib64_libmingw32_a-charmax.o) (__imp___lconv_init)
K:/embedded/General Tools/General Tools/mingw64/bin/../lib/gcc/x86_64-w64-mingw32/6.2.0/../../../../x86_64-w64-mingw32/lib/../lib/libmsvcrt.a(dekes00083.o)
                              K:/embedded/General Tools/General Tools/mingw64/bin/../lib/gcc/x86_64-w64-mingw32/6.2.0/../../../../x86_64-w64-mingw32/lib/../lib/libmingw32.a(lib64_libmingw32_a-merr.o) (__iob_func)
K:/embedded/General Tools/General Tools/mingw64/bin/../lib/gcc/x86_64-w64-mingw32/6.2.0/../../../../x86_64-w64-mingw32/lib/../lib/libmsvcrt.a(dekes00082.o)
                              K:/embedded/General Tools/General Tools/mingw64/bin/../lib/gcc/x86_64-w64-mingw32/6.2.0/../../../../x86_64-w64-mingw32/lib/../lib/crt2.o (__imp___initenv)
K:/embedded/General Tools/General Tools/mingw64/bin/../lib/gcc/x86_64-w64-mingw32/6.2.0/../../../../x86_64-w64-mingw32/lib/../lib/libmsvcrt.a(dekes00081.o)
                              K:/embedded/General Tools/General Tools/mingw64/bin/../lib/gcc/x86_64-w64-mingw32/6.2.0/../../../../x86_64-w64-mingw32/lib/../lib/crt2.o (__getmainargs)
K:/embedded/General Tools/General Tools/mingw64/bin/../lib/gcc/x86_64-w64-mingw32/6.2.0/../../../../x86_64-w64-mingw32/lib/../lib/libmsvcrt.a(dekes00078.o)
                              K:/embedded/General Tools/General Tools/mingw64/bin/../lib/gcc/x86_64-w64-mingw32/6.2.0/../../../../x86_64-w64-mingw32/lib/../lib/libmingw32.a(lib64_libmingw32_a-atonexit.o) (__dllonexit)
K:/embedded/General Tools/General Tools/mingw64/bin/../lib/gcc/x86_64-w64-mingw32/6.2.0/../../../../x86_64-w64-mingw32/lib/../lib/libmsvcrt.a(dekes00055.o)
                              K:/embedded/General Tools/General Tools/mingw64/bin/../lib/gcc/x86_64-w64-mingw32/6.2.0/../../../../x86_64-w64-mingw32/lib/../lib/crt2.o (__C_specific_handler)
K:/embedded/General Tools/General Tools/mingw64/bin/../lib/gcc/x86_64-w64-mingw32/6.2.0/../../../../x86_64-w64-mingw32/lib/../lib/libmsvcrt.a(lib64_libmsvcrt_a-invalid_parameter_handler.o)
                              K:/embedded/General Tools/General Tools/mingw64/bin/../lib/gcc/x86_64-w64-mingw32/6.2.0/../../../../x86_64-w64-mingw32/lib/../lib/crt2.o (_set_invalid_parameter_handler)
K:/embedded/General Tools/General Tools/mingw64/bin/../lib/gcc/x86_64-w64-mingw32/6.2.0/../../../../x86_64-w64-mingw32/lib/../lib/libmsvcrt.a(dekeh.o)
                              K:/embedded/General Tools/General Tools/mingw64/bin/../lib/gcc/x86_64-w64-mingw32/6.2.0/../../../../x86_64-w64-mingw32/lib/../lib/libmsvcrt.a(dekes01240.o) (_head_lib64_libmsvcrt_a)
K:/embedded/General Tools/General Tools/mingw64/bin/../lib/gcc/x86_64-w64-mingw32/6.2.0/../../../../x86_64-w64-mingw32/lib/../lib/libmsvcrt.a(deket.o)
                              K:/embedded/General Tools/General Tools/mingw64/bin/../lib/gcc/x86_64-w64-mingw32/6.2.0/../../../../x86_64-w64-mingw32/lib/../lib/libmsvcrt.a(dekeh.o) (__lib64_libmsvcrt_a_iname)
K:/embedded/General Tools/General Tools/mingw64/bin/../lib/gcc/x86_64-w64-mingw32/6.2.0/../../../../x86_64-w64-mingw32/lib/../lib/libkernel32.a(dmmds01274.o)
                              FreeRTOS_Source\portable\MSVC-MingW\port.o (__imp_WaitForSingleObject)
K:/embedded/General Tools/General Tools/mingw64/bin/../lib/gcc/x86_64-w64-mingw32/6.2.0/../../../../x86_64-w64-mingw32/lib/../lib/libkernel32.a(dmmds01272.o)
                              FreeRTOS_Source\portable\MSVC-MingW\port.o (__imp_WaitForMultipleObjects)
K:/embedded/General Tools/General Tools/mingw64/bin/../lib/gcc/x86_64-w64-mingw32/6.2.0/../../../../x86_64-w64-mingw32/lib/../lib/libkernel32.a(dmmds01266.o)
                              K:/embedded/General Tools/General Tools/mingw64/bin/../lib/gcc/x86_64-w64-mingw32/6.2.0/../../../../x86_64-w64-mingw32/lib/../lib/libmingw32.a(lib64_libmingw32_a-pseudo-reloc.o) (__imp_VirtualQuery)
K:/embedded/General Tools/General Tools/mingw64/bin/../lib/gcc/x86_64-w64-mingw32/6.2.0/../../../../x86_64-w64-mingw32/lib/../lib/libkernel32.a(dmmds01264.o)
                              K:/embedded/General Tools/General Tools/mingw64/bin/../lib/gcc/x86_64-w64-mingw32/6.2.0/../../../../x86_64-w64-mingw32/lib/../lib/libmingw32.a(lib64_libmingw32_a-pseudo-reloc.o) (__imp_VirtualProtect)
K:/embedded/General Tools/General Tools/mingw64/bin/../lib/gcc/x86_64-w64-mingw32/6.2.0/../../../../x86_64-w64-mingw32/lib/../lib/libkernel32.a(dmmds01234.o)
                              K:/embedded/General Tools/General Tools/mingw64/bin/../lib/gcc/x86_64-w64-mingw32/6.2.0/../../../../x86_64-w64-mingw32/lib/../lib/libmingw32.a(lib64_libmingw32_a-gs_support.o) (__imp_UnhandledExceptionFilter)
K:/embedded/General Tools/General Tools/mingw64/bin/../lib/gcc/x86_64-w64-mingw32/6.2.0/../../../../x86_64-w64-mingw32/lib/../lib/libkernel32.a(dmmds01221.o)
                              K:/embedded/General Tools/General Tools/mingw64/bin/../lib/gcc/x86_64-w64-mingw32/6.2.0/../../../../x86_64-w64-mingw32/lib/../lib/libmingw32.a(lib64_libmingw32_a-tlsthrd.o) (__imp_TlsGetValue)
K:/embedded/General Tools/General Tools/mingw64/bin/../lib/gcc/x86_64-w64-mingw32/6.2.0/../../../../x86_64-w64-mingw32/lib/../lib/libkernel32.a(dmmds01215.o)
                              FreeRTOS_Source\portable\MSVC-MingW\port.o (__imp_TerminateThread)
K:/embedded/General Tools/General Tools/mingw64/bin/../lib/gcc/x86_64-w64-mingw32/6.2.0/../../../../x86_64-w64-mingw32/lib/../lib/libkernel32.a(dmmds01214.o)
                              K:/embedded/General Tools/General Tools/mingw64/bin/../lib/gcc/x86_64-w64-mingw32/6.2.0/../../../../x86_64-w64-mingw32/lib/../lib/libmingw32.a(lib64_libmingw32_a-gs_support.o) (__imp_TerminateProcess)
K:/embedded/General Tools/General Tools/mingw64/bin/../lib/gcc/x86_64-w64-mingw32/6.2.0/../../../../x86_64-w64-mingw32/lib/../lib/libkernel32.a(dmmds01208.o)
                              FreeRTOS_Source\portable\MSVC-MingW\port.o (__imp_SuspendThread)
K:/embedded/General Tools/General Tools/mingw64/bin/../lib/gcc/x86_64-w64-mingw32/6.2.0/../../../../x86_64-w64-mingw32/lib/../lib/libkernel32.a(dmmds01200.o)
                              K:/embedded/General Tools/General Tools/mingw64/bin/../lib/gcc/x86_64-w64-mingw32/6.2.0/../../../../x86_64-w64-mingw32/lib/../lib/crt2.o (__imp_Sleep)
K:/embedded/General Tools/General Tools/mingw64/bin/../lib/gcc/x86_64-w64-mingw32/6.2.0/../../../../x86_64-w64-mingw32/lib/../lib/libkernel32.a(dmmds01187.o)
                              K:/embedded/General Tools/General Tools/mingw64/bin/../lib/gcc/x86_64-w64-mingw32/6.2.0/../../../../x86_64-w64-mingw32/lib/../lib/crt2.o (__imp_SetUnhandledExceptionFilter)
K:/embedded/General Tools/General Tools/mingw64/bin/../lib/gcc/x86_64-w64-mingw32/6.2.0/../../../../x86_64-w64-mingw32/lib/../lib/libkernel32.a(dmmds01175.o)
                              FreeRTOS_Source\portable\MSVC-MingW\port.o (__imp_SetThreadPriorityBoost)
K:/embedded/General Tools/General Tools/mingw64/bin/../lib/gcc/x86_64-w64-mingw32/6.2.0/../../../../x86_64-w64-mingw32/lib/../lib/libkernel32.a(dmmds01174.o)
                              FreeRTOS_Source\portable\MSVC-MingW\port.o (__imp_SetThreadPriority)
K:/embedded/General Tools/General Tools/mingw64/bin/../lib/gcc/x86_64-w64-mingw32/6.2.0/../../../../x86_64-w64-mingw32/lib/../lib/libkernel32.a(dmmds01165.o)
                              FreeRTOS_Source\portable\MSVC-MingW\port.o (__imp_SetThreadAffinityMask)
K:/embedded/General Tools/General Tools/mingw64/bin/../lib/gcc/x86_64-w64-mingw32/6.2.0/../../../../x86_64-w64-mingw32/lib/../lib/libkernel32.a(dmmds01146.o)
                              FreeRTOS_Source\portable\MSVC-MingW\port.o (__imp_SetPriorityClass)
K:/embedded/General Tools/General Tools/mingw64/bin/../lib/gcc/x86_64-w64-mingw32/6.2.0/../../../../x86_64-w64-mingw32/lib/../lib/libkernel32.a(dmmds01111.o)
                              FreeRTOS_Source\portable\MSVC-MingW\port.o (__imp_SetEvent)
K:/embedded/General Tools/General Tools/mingw64/bin/../lib/gcc/x86_64-w64-mingw32/6.2.0/../../../../x86_64-w64-mingw32/lib/../lib/libkernel32.a(dmmds01067.o)
                              FreeRTOS_Source\portable\MSVC-MingW\port.o (__imp_SetConsoleCtrlHandler)
K:/embedded/General Tools/General Tools/mingw64/bin/../lib/gcc/x86_64-w64-mingw32/6.2.0/../../../../x86_64-w64-mingw32/lib/../lib/libkernel32.a(dmmds01044.o)
                              K:/embedded/General Tools/General Tools/mingw64/bin/../lib/gcc/x86_64-w64-mingw32/6.2.0/../../../../x86_64-w64-mingw32/lib/../lib/libmingw32.a(lib64_libmingw32_a-gs_support.o) (__imp_RtlVirtualUnwind)
K:/embedded/General Tools/General Tools/mingw64/bin/../lib/gcc/x86_64-w64-mingw32/6.2.0/../../../../x86_64-w64-mingw32/lib/../lib/libkernel32.a(dmmds01037.o)
                              K:/embedded/General Tools/General Tools/mingw64/bin/../lib/gcc/x86_64-w64-mingw32/6.2.0/../../../../x86_64-w64-mingw32/lib/../lib/libmingw32.a(lib64_libmingw32_a-gs_support.o) (__imp_RtlLookupFunctionEntry)
K:/embedded/General Tools/General Tools/mingw64/bin/../lib/gcc/x86_64-w64-mingw32/6.2.0/../../../../x86_64-w64-mingw32/lib/../lib/libkernel32.a(dmmds01030.o)
                              K:/embedded/General Tools/General Tools/mingw64/bin/../lib/gcc/x86_64-w64-mingw32/6.2.0/../../../../x86_64-w64-mingw32/lib/../lib/libmingw32.a(lib64_libmingw32_a-gs_support.o) (__imp_RtlCaptureContext)
K:/embedded/General Tools/General Tools/mingw64/bin/../lib/gcc/x86_64-w64-mingw32/6.2.0/../../../../x86_64-w64-mingw32/lib/../lib/libkernel32.a(dmmds01029.o)
                              K:/embedded/General Tools/General Tools/mingw64/bin/../lib/gcc/x86_64-w64-mingw32/6.2.0/../../../../x86_64-w64-mingw32/lib/../lib/libmingw32.a(lib64_libmingw32_a-crt_handler.o) (__imp_RtlAddFunctionTable)
K:/embedded/General Tools/General Tools/mingw64/bin/../lib/gcc/x86_64-w64-mingw32/6.2.0/../../../../x86_64-w64-mingw32/lib/../lib/libkernel32.a(dmmds01028.o)
                              FreeRTOS_Source\portable\MSVC-MingW\port.o (__imp_ResumeThread)
K:/embedded/General Tools/General Tools/mingw64/bin/../lib/gcc/x86_64-w64-mingw32/6.2.0/../../../../x86_64-w64-mingw32/lib/../lib/libkernel32.a(dmmds01024.o)
                              FreeRTOS_Source\portable\MSVC-MingW\port.o (__imp_ResetEvent)
K:/embedded/General Tools/General Tools/mingw64/bin/../lib/gcc/x86_64-w64-mingw32/6.2.0/../../../../x86_64-w64-mingw32/lib/../lib/libkernel32.a(dmmds01003.o)
                              FreeRTOS_Source\portable\MSVC-MingW\port.o (__imp_ReleaseMutex)
K:/embedded/General Tools/General Tools/mingw64/bin/../lib/gcc/x86_64-w64-mingw32/6.2.0/../../../../x86_64-w64-mingw32/lib/../lib/libkernel32.a(dmmds00959.o)
                              Run-time-stats-utils.o (__imp_QueryPerformanceFrequency)
K:/embedded/General Tools/General Tools/mingw64/bin/../lib/gcc/x86_64-w64-mingw32/6.2.0/../../../../x86_64-w64-mingw32/lib/../lib/libkernel32.a(dmmds00958.o)
                              Run-time-stats-utils.o (__imp_QueryPerformanceCounter)
K:/embedded/General Tools/General Tools/mingw64/bin/../lib/gcc/x86_64-w64-mingw32/6.2.0/../../../../x86_64-w64-mingw32/lib/../lib/libkernel32.a(dmmds00844.o)
                              K:/embedded/General Tools/General Tools/mingw64/bin/../lib/gcc/x86_64-w64-mingw32/6.2.0/../../../../x86_64-w64-mingw32/lib/../lib/libmingw32.a(lib64_libmingw32_a-tlsthrd.o) (__imp_LeaveCriticalSection)
K:/embedded/General Tools/General Tools/mingw64/bin/../lib/gcc/x86_64-w64-mingw32/6.2.0/../../../../x86_64-w64-mingw32/lib/../lib/libkernel32.a(dmmds00762.o)
                              K:/embedded/General Tools/General Tools/mingw64/bin/../lib/gcc/x86_64-w64-mingw32/6.2.0/../../../../x86_64-w64-mingw32/lib/../lib/libmingw32.a(lib64_libmingw32_a-tlsthrd.o) (__imp_InitializeCriticalSection)
K:/embedded/General Tools/General Tools/mingw64/bin/../lib/gcc/x86_64-w64-mingw32/6.2.0/../../../../x86_64-w64-mingw32/lib/../lib/libkernel32.a(dmmds00678.o)
                              K:/embedded/General Tools/General Tools/mingw64/bin/../lib/gcc/x86_64-w64-mingw32/6.2.0/../../../../x86_64-w64-mingw32/lib/../lib/libmingw32.a(lib64_libmingw32_a-gs_support.o) (__imp_GetTickCount)
K:/embedded/General Tools/General Tools/mingw64/bin/../lib/gcc/x86_64-w64-mingw32/6.2.0/../../../../x86_64-w64-mingw32/lib/../lib/libkernel32.a(dmmds00665.o)
                              FreeRTOS_Source\portable\MSVC-MingW\port.o (__imp_GetThreadContext)
K:/embedded/General Tools/General Tools/mingw64/bin/../lib/gcc/x86_64-w64-mingw32/6.2.0/../../../../x86_64-w64-mingw32/lib/../lib/libkernel32.a(dmmds00651.o)
                              K:/embedded/General Tools/General Tools/mingw64/bin/../lib/gcc/x86_64-w64-mingw32/6.2.0/../../../../x86_64-w64-mingw32/lib/../lib/libmingw32.a(lib64_libmingw32_a-gs_support.o) (__imp_GetSystemTimeAsFileTime)
K:/embedded/General Tools/General Tools/mingw64/bin/../lib/gcc/x86_64-w64-mingw32/6.2.0/../../../../x86_64-w64-mingw32/lib/../lib/libkernel32.a(dmmds00645.o)
                              FreeRTOS_Source\portable\MSVC-MingW\port.o (__imp_GetSystemInfo)
K:/embedded/General Tools/General Tools/mingw64/bin/../lib/gcc/x86_64-w64-mingw32/6.2.0/../../../../x86_64-w64-mingw32/lib/../lib/libkernel32.a(dmmds00628.o)
                              K:/embedded/General Tools/General Tools/mingw64/bin/../lib/gcc/x86_64-w64-mingw32/6.2.0/../../../../x86_64-w64-mingw32/lib/../lib/crt2.o (__imp_GetStartupInfoA)
K:/embedded/General Tools/General Tools/mingw64/bin/../lib/gcc/x86_64-w64-mingw32/6.2.0/../../../../x86_64-w64-mingw32/lib/../lib/libkernel32.a(dmmds00599.o)
                              K:/embedded/General Tools/General Tools/mingw64/bin/../lib/gcc/x86_64-w64-mingw32/6.2.0/crtbegin.o (__imp_GetProcAddress)
K:/embedded/General Tools/General Tools/mingw64/bin/../lib/gcc/x86_64-w64-mingw32/6.2.0/../../../../x86_64-w64-mingw32/lib/../lib/libkernel32.a(dmmds00549.o)
                              K:/embedded/General Tools/General Tools/mingw64/bin/../lib/gcc/x86_64-w64-mingw32/6.2.0/crtbegin.o (__imp_GetModuleHandleA)
K:/embedded/General Tools/General Tools/mingw64/bin/../lib/gcc/x86_64-w64-mingw32/6.2.0/../../../../x86_64-w64-mingw32/lib/../lib/libkernel32.a(dmmds00529.o)
                              K:/embedded/General Tools/General Tools/mingw64/bin/../lib/gcc/x86_64-w64-mingw32/6.2.0/../../../../x86_64-w64-mingw32/lib/../lib/libmingw32.a(lib64_libmingw32_a-pseudo-reloc.o) (__imp_GetLastError)
K:/embedded/General Tools/General Tools/mingw64/bin/../lib/gcc/x86_64-w64-mingw32/6.2.0/../../../../x86_64-w64-mingw32/lib/../lib/libkernel32.a(dmmds00467.o)
                              K:/embedded/General Tools/General Tools/mingw64/bin/../lib/gcc/x86_64-w64-mingw32/6.2.0/../../../../x86_64-w64-mingw32/lib/../lib/libmingw32.a(lib64_libmingw32_a-gs_support.o) (__imp_GetCurrentThreadId)
K:/embedded/General Tools/General Tools/mingw64/bin/../lib/gcc/x86_64-w64-mingw32/6.2.0/../../../../x86_64-w64-mingw32/lib/../lib/libkernel32.a(dmmds00466.o)
                              FreeRTOS_Source\portable\MSVC-MingW\port.o (__imp_GetCurrentThread)
K:/embedded/General Tools/General Tools/mingw64/bin/../lib/gcc/x86_64-w64-mingw32/6.2.0/../../../../x86_64-w64-mingw32/lib/../lib/libkernel32.a(dmmds00463.o)
                              K:/embedded/General Tools/General Tools/mingw64/bin/../lib/gcc/x86_64-w64-mingw32/6.2.0/../../../../x86_64-w64-mingw32/lib/../lib/libmingw32.a(lib64_libmingw32_a-gs_support.o) (__imp_GetCurrentProcessId)
K:/embedded/General Tools/General Tools/mingw64/bin/../lib/gcc/x86_64-w64-mingw32/6.2.0/../../../../x86_64-w64-mingw32/lib/../lib/libkernel32.a(dmmds00462.o)
                              FreeRTOS_Source\portable\MSVC-MingW\port.o (__imp_GetCurrentProcess)
K:/embedded/General Tools/General Tools/mingw64/bin/../lib/gcc/x86_64-w64-mingw32/6.2.0/../../../../x86_64-w64-mingw32/lib/../lib/libkernel32.a(dmmds00295.o)
                              FreeRTOS_Source\portable\MSVC-MingW\port.o (__imp_ExitThread)
K:/embedded/General Tools/General Tools/mingw64/bin/../lib/gcc/x86_64-w64-mingw32/6.2.0/../../../../x86_64-w64-mingw32/lib/../lib/libkernel32.a(dmmds00249.o)
                              K:/embedded/General Tools/General Tools/mingw64/bin/../lib/gcc/x86_64-w64-mingw32/6.2.0/../../../../x86_64-w64-mingw32/lib/../lib/libmingw32.a(lib64_libmingw32_a-tlsthrd.o) (__imp_EnterCriticalSection)
K:/embedded/General Tools/General Tools/mingw64/bin/../lib/gcc/x86_64-w64-mingw32/6.2.0/../../../../x86_64-w64-mingw32/lib/../lib/libkernel32.a(dmmds00216.o)
                              K:/embedded/General Tools/General Tools/mingw64/bin/../lib/gcc/x86_64-w64-mingw32/6.2.0/../../../../x86_64-w64-mingw32/lib/../lib/libmingw32.a(lib64_libmingw32_a-tlsthrd.o) (__imp_DeleteCriticalSection)
K:/embedded/General Tools/General Tools/mingw64/bin/../lib/gcc/x86_64-w64-mingw32/6.2.0/../../../../x86_64-w64-mingw32/lib/../lib/libkernel32.a(dmmds00186.o)
                              FreeRTOS_Source\portable\MSVC-MingW\port.o (__imp_CreateThread)
K:/embedded/General Tools/General Tools/mingw64/bin/../lib/gcc/x86_64-w64-mingw32/6.2.0/../../../../x86_64-w64-mingw32/lib/../lib/libkernel32.a(dmmds00160.o)
                              FreeRTOS_Source\portable\MSVC-MingW\port.o (__imp_CreateMutexA)
K:/embedded/General Tools/General Tools/mingw64/bin/../lib/gcc/x86_64-w64-mingw32/6.2.0/../../../../x86_64-w64-mingw32/lib/../lib/libkernel32.a(dmmds00134.o)
                              FreeRTOS_Source\portable\MSVC-MingW\port.o (__imp_CreateEventA)
K:/embedded/General Tools/General Tools/mingw64/bin/../lib/gcc/x86_64-w64-mingw32/6.2.0/../../../../x86_64-w64-mingw32/lib/../lib/libkernel32.a(dmmds00085.o)
                              FreeRTOS_Source\portable\MSVC-MingW\port.o (__imp_CloseHandle)
K:/embedded/General Tools/General Tools/mingw64/bin/../lib/gcc/x86_64-w64-mingw32/6.2.0/../../../../x86_64-w64-mingw32/lib/../lib/libkernel32.a(dmmdh.o)
                              K:/embedded/General Tools/General Tools/mingw64/bin/../lib/gcc/x86_64-w64-mingw32/6.2.0/../../../../x86_64-w64-mingw32/lib/../lib/libkernel32.a(dmmds01274.o) (_head_lib64_libkernel32_a)
K:/embedded/General Tools/General Tools/mingw64/bin/../lib/gcc/x86_64-w64-mingw32/6.2.0/../../../../x86_64-w64-mingw32/lib/../lib/libkernel32.a(dmmdt.o)
                              K:/embedded/General Tools/General Tools/mingw64/bin/../lib/gcc/x86_64-w64-mingw32/6.2.0/../../../../x86_64-w64-mingw32/lib/../lib/libkernel32.a(dmmdh.o) (__lib64_libkernel32_a_iname)

Allocating common symbols
Common symbol       size              file

xQueueSetSendingTask
                    0x8               Standard_Demo_Tasks\QueueSet.o
xHighPriorityTask   0x8               Standard_Demo_Tasks\QPeek.o
__mingw_winmain_lpCmdLine
                    0x8               K:/embedded/General Tools/General Tools/mingw64/bin/../lib/gcc/x86_64-w64-mingw32/6.2.0/../../../../x86_64-w64-mingw32/lib/../lib/crt2.o
xMediumPriorityTask
                    0x8               Standard_Demo_Tasks\QPeek.o
xQueueRegistry      0x140             FreeRTOS_Source\queue.o
RecorderData        0x13888           FreeRTOS+Trace Recorder\trcSnapshotRecorder.o
__CTOR_LIST__       0x10              K:/embedded/General Tools/General Tools/mingw64/bin/../lib/gcc/x86_64-w64-mingw32/6.2.0/libgcc.a(_ctors.o)
__native_startup_state
                    0x4               K:/embedded/General Tools/General Tools/mingw64/bin/../lib/gcc/x86_64-w64-mingw32/6.2.0/../../../../x86_64-w64-mingw32/lib/../lib/libmingw32.a(lib64_libmingw32_a-natstart.o)
__onexitbegin       0x8               K:/embedded/General Tools/General Tools/mingw64/bin/../lib/gcc/x86_64-w64-mingw32/6.2.0/../../../../x86_64-w64-mingw32/lib/../lib/libmingw32.a(lib64_libmingw32_a-atonexit.o)
xHighestPriorityTask
                    0x8               Standard_Demo_Tasks\QPeek.o
__DTOR_LIST__       0x10              K:/embedded/General Tools/General Tools/mingw64/bin/../lib/gcc/x86_64-w64-mingw32/6.2.0/libgcc.a(_ctors.o)
xCreatedTask        0x8               Standard_Demo_Tasks\death.o
__onexitend         0x8               K:/embedded/General Tools/General Tools/mingw64/bin/../lib/gcc/x86_64-w64-mingw32/6.2.0/../../../../x86_64-w64-mingw32/lib/../lib/libmingw32.a(lib64_libmingw32_a-atonexit.o)
__native_startup_lock
                    0x8               K:/embedded/General Tools/General Tools/mingw64/bin/../lib/gcc/x86_64-w64-mingw32/6.2.0/../../../../x86_64-w64-mingw32/lib/../lib/libmingw32.a(lib64_libmingw32_a-natstart.o)
__mingw_winmain_hInstance
                    0x8               K:/embedded/General Tools/General Tools/mingw64/bin/../lib/gcc/x86_64-w64-mingw32/6.2.0/../../../../x86_64-w64-mingw32/lib/../lib/crt2.o
xQueueSetReceivingTask
                    0x8               Standard_Demo_Tasks\QueueSet.o
init_hwtc_count     0x4               FreeRTOS+Trace Recorder\trcSnapshotRecorder.o
xSuspendedTestQueue
                    0x8               Standard_Demo_Tasks\dynamic.o
uxTimerTaskStack    0x460             main.o

Discarded input sections

 .drectve       0x0000000000000000       0x54 K:/embedded/General Tools/General Tools/mingw64/bin/../lib/gcc/x86_64-w64-mingw32/6.2.0/../../../../x86_64-w64-mingw32/lib/../lib/crt2.o
 .drectve       0x0000000000000000       0x3c FreeRTOS+Trace Recorder\trcSnapshotRecorder.o
 .drectve       0x0000000000000000       0x20 FreeRTOS_Source\queue.o
 .rdata$.refptr.CurrentFilterGroup
                0x0000000000000000       0x10 FreeRTOS_Source\queue.o
 .rdata$.refptr.CurrentFilterMask
                0x0000000000000000       0x10 FreeRTOS_Source\queue.o
 .rdata$.refptr.CurrentFilterMask
                0x0000000000000000       0x10 FreeRTOS_Source\stream_buffer.o
 .rdata$.refptr.CurrentFilterGroup
                0x0000000000000000       0x10 FreeRTOS_Source\stream_buffer.o
 .rdata$.refptr.CurrentFilterMask
                0x0000000000000000       0x10 FreeRTOS_Source\tasks.o
 .rdata$.refptr.CurrentFilterGroup
                0x0000000000000000       0x10 FreeRTOS_Source\tasks.o
 .rdata$.refptr.uiInEventGroupSetBitsFromISR
                0x0000000000000000       0x10 FreeRTOS_Source\timers.o
 .rdata$.refptr.CurrentFilterMask
                0x0000000000000000       0x10 FreeRTOS_Source\timers.o
 .rdata$.refptr.CurrentFilterGroup
                0x0000000000000000       0x10 FreeRTOS_Source\timers.o
 .drectve       0x0000000000000000       0x68 Standard_Demo_Tasks\QPeek.o
 .drectve       0x0000000000000000       0x4c Standard_Demo_Tasks\QueueSet.o
 .drectve       0x0000000000000000       0x1c Standard_Demo_Tasks\death.o
 .drectve       0x0000000000000000       0x24 Standard_Demo_Tasks\dynamic.o
 .drectve       0x0000000000000000       0x20 main.o
 .rdata$.refptr.RecorderDataPtr
                0x0000000000000000       0x10 main.o
 .drectve       0x0000000000000000       0x38 K:/embedded/General Tools/General Tools/mingw64/bin/../lib/gcc/x86_64-w64-mingw32/6.2.0/../../../../x86_64-w64-mingw32/lib/../lib/libmingw32.a(lib64_libmingw32_a-atonexit.o)
 .drectve       0x0000000000000000       0x4c K:/embedded/General Tools/General Tools/mingw64/bin/../lib/gcc/x86_64-w64-mingw32/6.2.0/../../../../x86_64-w64-mingw32/lib/../lib/libmingw32.a(lib64_libmingw32_a-natstart.o)
 .rdata$.refptr.__image_base__
                0x0000000000000000       0x10 K:/embedded/General Tools/General Tools/mingw64/bin/../lib/gcc/x86_64-w64-mingw32/6.2.0/../../../../x86_64-w64-mingw32/lib/../lib/libmingw32.a(lib64_libmingw32_a-pseudo-reloc.o)
 .rdata$.refptr.__image_base__
                0x0000000000000000       0x10 K:/embedded/General Tools/General Tools/mingw64/bin/../lib/gcc/x86_64-w64-mingw32/6.2.0/../../../../x86_64-w64-mingw32/lib/../lib/libmingw32.a(lib64_libmingw32_a-pesect.o)
 .drectve       0x0000000000000000       0x3c K:/embedded/General Tools/General Tools/mingw64/bin/../lib/gcc/x86_64-w64-mingw32/6.2.0/libgcc.a(_ctors.o)

Memory Configuration

Name             Origin             Length             Attributes
*default*        0x0000000000000000 0xffffffffffffffff

Linker script and memory map

                0x0000000000400000                __image_base__ = 0x400000
                0x0000000000000000                __dll__ = 0x0
                0x0000000000400000                __ImageBase = 0x400000
                0x0000000000001000                __section_alignment__ = 0x1000
                0x0000000000000200                __file_alignment__ = 0x200
                0x0000000000000004                __major_os_version__ = 0x4
                0x0000000000000000                __minor_os_version__ = 0x0
                0x0000000000000000                __major_image_version__ = 0x0
                0x0000000000000000                __minor_image_version__ = 0x0
                0x0000000000000005                __major_subsystem_version__ = 0x5
                0x0000000000000002                __minor_subsystem_version__ = 0x2
                0x0000000000000003                __subsystem__ = 0x3
                0x0000000000200000                __size_of_stack_reserve__ = 0x200000
                0x0000000000001000                __size_of_stack_commit__ = 0x1000
                0x0000000000100000                __size_of_heap_reserve__ = 0x100000
                0x0000000000001000                __size_of_heap_commit__ = 0x1000
                0x0000000000000000                __loader_flags__ = 0x0
                0x0000000000000000                __dll_characteristics__ = 0x0
LOAD K:/embedded/General Tools/General Tools/mingw64/bin/../lib/gcc/x86_64-w64-mingw32/6.2.0/../../../../x86_64-w64-mingw32/lib/../lib/crt2.o
LOAD K:/embedded/General Tools/General Tools/mingw64/bin/../lib/gcc/x86_64-w64-mingw32/6.2.0/crtbegin.o
LOAD DemosModifiedForLowTickRate\recmutex.o
LOAD FreeRTOS+Trace Recorder\trcKernelPort.o
LOAD FreeRTOS+Trace Recorder\trcSnapshotRecorder.o
LOAD FreeRTOS+Trace Recorder\trcStreamingRecorder.o
LOAD FreeRTOS_Source\croutine.o
LOAD FreeRTOS_Source\event_groups.o
LOAD FreeRTOS_Source\list.o
LOAD FreeRTOS_Source\portable\MSVC-MingW\port.o
LOAD FreeRTOS_Source\portable\MemMang\heap_5.o
LOAD FreeRTOS_Source\queue.o
LOAD FreeRTOS_Source\stream_buffer.o
LOAD FreeRTOS_Source\tasks.o
LOAD FreeRTOS_Source\timers.o
LOAD Run-time-stats-utils.o
LOAD Standard_Demo_Tasks\AbortDelay.o
LOAD Standard_Demo_Tasks\BlockQ.o
LOAD Standard_Demo_Tasks\EventGroupsDemo.o
LOAD Standard_Demo_Tasks\GenQTest.o
LOAD Standard_Demo_Tasks\IntSemTest.o
LOAD Standard_Demo_Tasks\MessageBufferAMP.o
LOAD Standard_Demo_Tasks\MessageBufferDemo.o
LOAD Standard_Demo_Tasks\PollQ.o
LOAD Standard_Demo_Tasks\QPeek.o
LOAD Standard_Demo_Tasks\QueueOverwrite.o
LOAD Standard_Demo_Tasks\QueueSet.o
LOAD Standard_Demo_Tasks\QueueSetPolling.o
LOAD Standard_Demo_Tasks\StaticAllocation.o
LOAD Standard_Demo_Tasks\StreamBufferDemo.o
LOAD Standard_Demo_Tasks\StreamBufferInterrupt.o
LOAD Standard_Demo_Tasks\TaskNotify.o
LOAD Standard_Demo_Tasks\TimerDemo.o
LOAD Standard_Demo_Tasks\blocktim.o
LOAD Standard_Demo_Tasks\countsem.o
LOAD Standard_Demo_Tasks\death.o
LOAD Standard_Demo_Tasks\dynamic.o
LOAD Standard_Demo_Tasks\flop.o
LOAD Standard_Demo_Tasks\integer.o
LOAD Standard_Demo_Tasks\semtest.o
LOAD code_coverage_additions.o
LOAD main.o
LOAD main_blinky.o
LOAD main_full.o
LOAD main_task1.o
LOAD main_task2.o
LOAD main_task3.o
LOAD main_task4.o
LOAD K:/embedded/General Tools/General Tools/mingw64/bin/../lib/gcc/x86_64-w64-mingw32/6.2.0/../../../../x86_64-w64-mingw32/lib/../lib/libwinmm.a
LOAD K:/embedded/General Tools/General Tools/mingw64/bin/../lib/gcc/x86_64-w64-mingw32/6.2.0/../../../../x86_64-w64-mingw32/lib/../lib/libmingw32.a
LOAD K:/embedded/General Tools/General Tools/mingw64/bin/../lib/gcc/x86_64-w64-mingw32/6.2.0/libgcc.a
LOAD K:/embedded/General Tools/General Tools/mingw64/bin/../lib/gcc/x86_64-w64-mingw32/6.2.0/libgcc_eh.a
LOAD K:/embedded/General Tools/General Tools/mingw64/bin/../lib/gcc/x86_64-w64-mingw32/6.2.0/../../../../x86_64-w64-mingw32/lib/../lib/libmoldname.a
LOAD K:/embedded/General Tools/General Tools/mingw64/bin/../lib/gcc/x86_64-w64-mingw32/6.2.0/../../../../x86_64-w64-mingw32/lib/../lib/libmingwex.a
LOAD K:/embedded/General Tools/General Tools/mingw64/bin/../lib/gcc/x86_64-w64-mingw32/6.2.0/../../../../x86_64-w64-mingw32/lib/../lib/libmsvcrt.a
LOAD K:/embedded/General Tools/General Tools/mingw64/bin/../lib/gcc/x86_64-w64-mingw32/6.2.0/../../../../x86_64-w64-mingw32/lib/../lib/libpthread.dll.a
LOAD K:/embedded/General Tools/General Tools/mingw64/bin/../lib/gcc/x86_64-w64-mingw32/6.2.0/../../../../x86_64-w64-mingw32/lib/../lib/libadvapi32.a
LOAD K:/embedded/General Tools/General Tools/mingw64/bin/../lib/gcc/x86_64-w64-mingw32/6.2.0/../../../../x86_64-w64-mingw32/lib/../lib/libshell32.a
LOAD K:/embedded/General Tools/General Tools/mingw64/bin/../lib/gcc/x86_64-w64-mingw32/6.2.0/../../../../x86_64-w64-mingw32/lib/../lib/libuser32.a
LOAD K:/embedded/General Tools/General Tools/mingw64/bin/../lib/gcc/x86_64-w64-mingw32/6.2.0/../../../../x86_64-w64-mingw32/lib/../lib/libkernel32.a
LOAD K:/embedded/General Tools/General Tools/mingw64/bin/../lib/gcc/x86_64-w64-mingw32/6.2.0/../../../../x86_64-w64-mingw32/lib/../lib/libiconv.a
LOAD K:/embedded/General Tools/General Tools/mingw64/bin/../lib/gcc/x86_64-w64-mingw32/6.2.0/../../../../x86_64-w64-mingw32/lib/../lib/libmingw32.a
LOAD K:/embedded/General Tools/General Tools/mingw64/bin/../lib/gcc/x86_64-w64-mingw32/6.2.0/libgcc.a
LOAD K:/embedded/General Tools/General Tools/mingw64/bin/../lib/gcc/x86_64-w64-mingw32/6.2.0/libgcc_eh.a
LOAD K:/embedded/General Tools/General Tools/mingw64/bin/../lib/gcc/x86_64-w64-mingw32/6.2.0/../../../../x86_64-w64-mingw32/lib/../lib/libmoldname.a
LOAD K:/embedded/General Tools/General Tools/mingw64/bin/../lib/gcc/x86_64-w64-mingw32/6.2.0/../../../../x86_64-w64-mingw32/lib/../lib/libmingwex.a
LOAD K:/embedded/General Tools/General Tools/mingw64/bin/../lib/gcc/x86_64-w64-mingw32/6.2.0/../../../../x86_64-w64-mingw32/lib/../lib/libmsvcrt.a
LOAD K:/embedded/General Tools/General Tools/mingw64/bin/../lib/gcc/x86_64-w64-mingw32/6.2.0/crtend.o
                0x0000000000000430                . = SIZEOF_HEADERS
                0x0000000000001000                . = ALIGN (__section_alignment__)

.text           0x0000000000401000    0x23400
 *(.init)
 *(.text)
 .text          0x0000000000401000      0x530 K:/embedded/General Tools/General Tools/mingw64/bin/../lib/gcc/x86_64-w64-mingw32/6.2.0/../../../../x86_64-w64-mingw32/lib/../lib/crt2.o
                0x00000000004014d0                WinMainCRTStartup
                0x0000000000401500                mainCRTStartup
 .text          0x0000000000401530       0x80 K:/embedded/General Tools/General Tools/mingw64/bin/../lib/gcc/x86_64-w64-mingw32/6.2.0/crtbegin.o
                0x0000000000401530                .weak._Jv_RegisterClasses.__gcc_register_frame
                0x0000000000401540                __gcc_register_frame
                0x00000000004015a0                __gcc_deregister_frame
 .text          0x00000000004015b0      0x3f0 DemosModifiedForLowTickRate\recmutex.o
                0x00000000004015b0                vStartRecursiveMutexTasks
                0x00000000004018f4                xAreRecursiveMutexTasksStillRunning
 .text          0x00000000004019a0      0x9a0 FreeRTOS+Trace Recorder\trcKernelPort.o
                0x00000000004019a0                prvTraceGetQueueNumber
                0x00000000004019bb                prvTraceGetQueueType
                0x00000000004019d6                prvTraceGetTaskNumberLow16
                0x00000000004019f1                prvTraceGetTaskNumberHigh16
                0x0000000000401a0f                prvTraceSetTaskNumberLow16
                0x0000000000401a48                prvTraceSetTaskNumberHigh16
                0x0000000000401a81                prvTraceGetQueueNumberLow16
                0x0000000000401a9c                prvTraceGetQueueNumberHigh16
                0x0000000000401aba                prvTraceSetQueueNumberLow16
                0x0000000000401af3                prvTraceSetQueueNumberHigh16
                0x0000000000401b2c                prvTraceGetTimerNumberLow16
                0x0000000000401b47                prvTraceGetTimerNumberHigh16
                0x0000000000401b65                prvTraceSetTimerNumberLow16
                0x0000000000401b9e                prvTraceSetTimerNumberHigh16
                0x0000000000401bd7                prvTraceGetEventGroupNumberLow16
                0x0000000000401bf2                prvTraceGetEventGroupNumberHigh16
                0x0000000000401c10                prvTraceSetEventGroupNumberLow16
                0x0000000000401c49                prvTraceSetEventGroupNumberHigh16
                0x0000000000401c82                prvTraceGetStreamBufferNumberLow16
                0x0000000000401c9d                prvTraceGetStreamBufferNumberHigh16
                0x0000000000401cbb                prvTraceSetStreamBufferNumberLow16
                0x0000000000401cf4                prvTraceSetStreamBufferNumberHigh16
                0x0000000000401d2d                vTraceSetQueueName
                0x0000000000401d63                vTraceSetSemaphoreName
                0x0000000000401d99                vTraceSetMutexName
                0x0000000000401dcf                vTraceSetEventGroupName
                0x0000000000401e05                vTraceSetStreamBufferName
                0x0000000000401e3b                vTraceSetMessageBufferName
                0x0000000000401e71                prvTraceGetCurrentTaskHandle
                0x0000000000401e84                vTraceInitObjectPropertyTable
                0x00000000004020e1                vTraceInitObjectHandleStack
                0x0000000000402297                pszTraceGetErrorNotEnoughHandles
                0x0000000000402326                prvTraceIsSchedulerSuspended
 .text          0x0000000000402340     0x3090 FreeRTOS+Trace Recorder\trcSnapshotRecorder.o
                0x0000000000402340                vTraceEnable
                0x000000000040238a                vTraceSetStopHook
                0x00000000004023a0                vTraceClear
                0x000000000040246c                uiTraceStart
                0x000000000040257a                vTraceStart
                0x000000000040258e                vTraceStop
                0x00000000004025cc                xTraceIsRecordingEnabled
                0x00000000004025ef                xTraceGetLastError
                0x00000000004025fc                vTraceClearError
                0x000000000040262b                xTraceGetTraceBuffer
                0x0000000000402638                uiTraceGetTraceBufferSize
                0x00000000004026db                vTraceInstanceFinishedNext
                0x00000000004026f4                vTraceInstanceFinishedNow
                0x000000000040270d                xTraceSetISRProperties
                0x00000000004027d7                vTraceStoreISRBegin
                0x0000000000402921                vTraceStoreISREnd
                0x0000000000402fc5                vTracePrintF
                0x0000000000403263                vTracePrint
                0x000000000040330b                xTraceRegisterString
                0x0000000000403364                prvTraceSetReadyEventsEnabled
                0x0000000000403377                prvTraceStoreTaskReady
                0x0000000000403458                prvTraceStoreLowPower
                0x000000000040350a                vTraceStoreMemMangEvent
                0x0000000000403657                prvTraceStoreKernelCall
                0x000000000040377b                prvTraceStoreKernelCallWithParam
                0x0000000000403947                prvTraceStoreKernelCallWithNumericParamOnly
                0x0000000000403a2f                prvTraceStoreTaskswitch
                0x0000000000403b37                prvTraceStoreObjectNameOnCloseEvent
                0x0000000000403c26                prvTraceStoreObjectPropertiesOnCloseEvent
                0x0000000000403d4b                prvTraceSetPriorityProperty
                0x0000000000403de7                prvTraceGetPriorityProperty
                0x0000000000403e84                prvTraceSetObjectState
                0x0000000000403fb7                prvTraceSetTaskInstanceFinished
                0x0000000000404350                uiIndexOfObject
                0x0000000000404420                prvTraceGetObjectHandle
                0x000000000040461c                prvTraceFreeObjectHandle
                0x0000000000404719                prvMarkObjectAsUsed
                0x00000000004047b5                prvTraceSetObjectName
                0x000000000040497f                vTraceSetFrequency
                0x0000000000404992                prvTraceError
                0x0000000000404a0d                vTraceSetFilterMask
                0x0000000000404a25                vTraceSetFilterGroup
                0x0000000000405315                prvTracePortGetTimeStamp
 .text          0x00000000004053d0        0x0 FreeRTOS+Trace Recorder\trcStreamingRecorder.o
 .text          0x00000000004053d0        0x0 FreeRTOS_Source\croutine.o
 .text          0x00000000004053d0      0xee0 FreeRTOS_Source\event_groups.o
                0x00000000004053d0                xEventGroupCreateStatic
                0x0000000000405555                xEventGroupCreate
                0x00000000004056a1                xEventGroupSync
                0x000000000040596a                xEventGroupWaitBits
                0x0000000000405cb3                xEventGroupClearBits
                0x0000000000405d8e                xEventGroupClearBitsFromISR
                0x0000000000405e05                xEventGroupGetBitsFromISR
                0x0000000000405e32                xEventGroupSetBits
                0x0000000000405ffb                vEventGroupDelete
                0x0000000000406143                vEventGroupSetBitsCallback
                0x0000000000406167                vEventGroupClearBitsCallback
                0x00000000004061d8                xEventGroupSetBitsFromISR
                0x0000000000406261                uxEventGroupGetNumber
                0x0000000000406298                vEventGroupSetNumber
 .text          0x00000000004062b0      0x220 FreeRTOS_Source\list.o
                0x00000000004062b0                vListInitialise
                0x0000000000406300                vListInitialiseItem
                0x0000000000406317                vListInsertEnd
                0x000000000040638d                vListInsert
                0x000000000040643d                uxListRemove
 .text          0x00000000004064d0      0xb90 FreeRTOS_Source\portable\MSVC-MingW\port.o
                0x0000000000406610                pxPortInitialiseStack
                0x000000000040671f                xPortStartScheduler
                0x0000000000406bf8                vPortDeleteThread
                0x0000000000406cb0                vPortCloseRunningThread
                0x0000000000406d52                vPortEndScheduler
                0x0000000000406d65                vPortGenerateSimulatedInterrupt
                0x0000000000406e5a                vPortSetInterruptHandler
                0x0000000000406ee3                vPortEnterCritical
                0x0000000000406f24                vPortExitCritical
 .text          0x0000000000407060      0x770 FreeRTOS_Source\portable\MemMang\heap_5.o
                0x0000000000407060                pvPortMalloc
                0x000000000040726f                vPortFree
                0x0000000000407392                xPortGetFreeHeapSize
                0x000000000040739f                xPortGetMinimumEverFreeHeapSize
                0x00000000004074be                vPortDefineHeapRegions
                0x00000000004076c0                vPortGetHeapStats
 .text          0x00000000004077d0     0x3470 FreeRTOS_Source\queue.o
                0x00000000004077d0                xQueueGenericReset
                0x00000000004078dc                xQueueGenericCreateStatic
                0x0000000000407a37                xQueueGenericCreate
                0x0000000000407d4e                xQueueCreateMutex
                0x0000000000407d97                xQueueCreateMutexStatic
                0x0000000000407df2                xQueueGetMutexHolder
                0x0000000000407e3c                xQueueGetMutexHolderFromISR
                0x0000000000407e8c                xQueueGiveMutexRecursive
                0x0000000000407fbe                xQueueTakeMutexRecursive
                0x0000000000408052                xQueueCreateCountingSemaphoreStatic
                0x00000000004080d5                xQueueCreateCountingSemaphore
                0x0000000000408145                xQueueGenericSend
                0x00000000004086c6                xQueueGenericSendFromISR
                0x0000000000408996                xQueueGiveFromISR
                0x0000000000408c2d                xQueueReceive
                0x0000000000409195                xQueueSemaphoreTake
                0x0000000000409766                xQueuePeek
                0x0000000000409c60                xQueueReceiveFromISR
                0x0000000000409eaf                xQueuePeekFromISR
                0x0000000000409f81                uxQueueMessagesWaiting
                0x0000000000409fc2                uxQueueSpacesAvailable
                0x000000000040a016                uxQueueMessagesWaitingFromISR
                0x000000000040a055                vQueueDelete
                0x000000000040a244                uxQueueGetQueueNumber
                0x000000000040a258                vQueueSetQueueNumber
                0x000000000040a273                ucQueueGetQueueType
                0x000000000040a5d1                xQueueIsQueueEmptyFromISR
                0x000000000040a662                xQueueIsQueueFullFromISR
                0x000000000040a6b9                vQueueAddToRegistry
                0x000000000040a778                pcQueueGetName
                0x000000000040a7e1                vQueueUnregisterQueue
                0x000000000040a85b                vQueueWaitForMessageRestricted
                0x000000000040a8de                xQueueCreateSet
                0x000000000040a90a                xQueueAddToSet
                0x000000000040a970                xQueueRemoveFromSet
                0x000000000040a9df                xQueueSelectFromSet
                0x000000000040aa16                xQueueSelectFromSetFromISR
 .text          0x000000000040ac40     0x1d00 FreeRTOS_Source\stream_buffer.o
                0x000000000040ac40                xStreamBufferGenericCreate
                0x000000000040ae91                xStreamBufferGenericCreateStatic
                0x000000000040b138                vStreamBufferDelete
                0x000000000040b2e7                xStreamBufferReset
                0x000000000040b464                xStreamBufferSetTriggerLevel
                0x000000000040b4d6                xStreamBufferSpacesAvailable
                0x000000000040b54d                xStreamBufferBytesAvailable
                0x000000000040b593                xStreamBufferSend
                0x000000000040b96d                xStreamBufferSendFromISR
                0x000000000040bc5b                xStreamBufferReceive
                0x000000000040bff5                xStreamBufferNextMessageLengthBytes
                0x000000000040c0bb                xStreamBufferReceiveFromISR
                0x000000000040c396                xStreamBufferIsEmpty
                0x000000000040c3f4                xStreamBufferIsFull
                0x000000000040c46c                xStreamBufferSendCompletedFromISR
                0x000000000040c4ff                xStreamBufferReceiveCompletedFromISR
                0x000000000040c8fe                uxStreamBufferGetStreamBufferNumber
                0x000000000040c90f                vStreamBufferSetStreamBufferNumber
                0x000000000040c927                ucStreamBufferGetStreamBufferType
 .text          0x000000000040c940     0x4320 FreeRTOS_Source\tasks.o
                0x000000000040c940                xTaskCreateStatic
                0x000000000040ca3d                xTaskCreate
                0x000000000040cf0e                vTaskDelete
                0x000000000040d2a1                vTaskDelayUntil
                0x000000000040d423                vTaskDelay
                0x000000000040d50a                eTaskGetState
                0x000000000040d609                uxTaskPriorityGet
                0x000000000040d64a                uxTaskPriorityGetFromISR
                0x000000000040d688                vTaskPrioritySet
                0x000000000040d90e                vTaskSuspend
                0x000000000040db58                vTaskResume
                0x000000000040dcd8                xTaskResumeFromISR
                0x000000000040de46                vTaskStartScheduler
                0x000000000040df69                vTaskEndScheduler
                0x000000000040df8c                vTaskSuspendAll
                0x000000000040dfb0                xTaskResumeAll
                0x000000000040e162                xTaskGetTickCount
                0x000000000040e17c                xTaskGetTickCountFromISR
                0x000000000040e19d                uxTaskGetNumberOfTasks
                0x000000000040e1a9                pcTaskGetName
                0x000000000040e347                xTaskGetHandle
                0x000000000040e43f                uxTaskGetSystemState
                0x000000000040e5bd                xTaskGetIdleTaskHandle
                0x000000000040e5ef                xTaskCatchUpTicks
                0x000000000040e643                xTaskAbortDelay
                0x000000000040e789                xTaskIncrementTick
                0x000000000040ea10                vTaskSetApplicationTaskTag
                0x000000000040ea5c                xTaskGetApplicationTaskTag
                0x000000000040eaa3                xTaskGetApplicationTaskTagFromISR
                0x000000000040eae7                xTaskCallApplicationTaskHook
                0x000000000040eb4c                vTaskSwitchContext
                0x000000000040ecb2                vTaskPlaceOnEventList
                0x000000000040ed06                vTaskPlaceOnUnorderedEventList
                0x000000000040ed8c                vTaskPlaceOnEventListRestricted
                0x000000000040ee78                xTaskRemoveFromEventList
                0x000000000040efaf                vTaskRemoveFromUnorderedEventList
                0x000000000040f0d0                vTaskSetTimeOutState
                0x000000000040f11e                vTaskInternalSetTimeOutState
                0x000000000040f142                xTaskCheckForTimeOut
                0x000000000040f250                vTaskMissedYield
                0x000000000040f261                uxTaskGetTaskNumber
                0x000000000040f298                vTaskSetTaskNumber
                0x000000000040f3ff                vTaskGetInfo
                0x000000000040f68d                uxTaskGetStackHighWaterMark2
                0x000000000040f6d5                uxTaskGetStackHighWaterMark
                0x000000000040f7e5                xTaskGetCurrentTaskHandle
                0x000000000040f802                xTaskGetSchedulerState
                0x000000000040f840                xTaskPriorityInherit
                0x000000000040fa75                xTaskPriorityDisinherit
                0x000000000040fcbe                vTaskPriorityDisinheritAfterTimeout
                0x000000000040ff14                uxTaskResetEventItemValue
                0x000000000040ff4f                pvTaskIncrementMutexHeldCount
                0x000000000040ff7e                ulTaskNotifyTake
                0x00000000004101d6                xTaskNotifyWait
                0x00000000004103db                xTaskGenericNotify
                0x0000000000410646                xTaskGenericNotifyFromISR
                0x00000000004108c6                vTaskNotifyGiveFromISR
                0x0000000000410a81                xTaskNotifyStateClear
                0x0000000000410ae2                ulTaskNotifyValueClear
                0x0000000000410b47                ulTaskGetIdleRunTimeCounter
 .text          0x0000000000410c60     0x1350 FreeRTOS_Source\timers.o
                0x0000000000410c60                xTimerCreateTimerTask
                0x0000000000410d1a                xTimerCreate
                0x0000000000410d85                xTimerCreateStatic
                0x0000000000410f93                xTimerGenericCommand
                0x00000000004112a2                xTimerGetTimerDaemonTaskHandle
                0x00000000004112d4                xTimerGetPeriod
                0x000000000041130d                vTimerSetReloadMode
                0x000000000041137d                uxTimerGetReloadMode
                0x00000000004113de                xTimerGetExpiryTime
                0x000000000041141d                pcTimerGetName
                0x0000000000411c99                xTimerIsTimerActive
                0x0000000000411cfa                pvTimerGetTimerID
                0x0000000000411d46                vTimerSetTimerID
                0x0000000000411d93                xTimerPendFunctionCallFromISR
                0x0000000000411e30                xTimerPendFunctionCall
                0x0000000000411f81                uxTimerGetTimerNumber
                0x0000000000411f92                vTimerSetTimerNumber
 .text          0x0000000000411fb0       0xd0 Run-time-stats-utils.o
                0x0000000000411fb0                vConfigureTimerForRunTimeStats
                0x0000000000412027                ulGetRunTimeCounterValue
 .text          0x0000000000412080      0xac0 Standard_Demo_Tasks\AbortDelay.o
                0x0000000000412080                vCreateAbortDelayTasks
                0x0000000000412ac4                xAreAbortDelayTestTasksStillRunning
 .text          0x0000000000412b40      0x4a0 Standard_Demo_Tasks\BlockQ.o
                0x0000000000412b40                vStartBlockingQueueTasks
                0x0000000000412ef3                xAreBlockingQueuesStillRunning
 .text          0x0000000000412fe0      0xf80 Standard_Demo_Tasks\EventGroupsDemo.o
                0x0000000000412fe0                vStartEventGroupTasks
                0x0000000000413d96                vPeriodicEventGroupsProcessing
                0x0000000000413ed7                xAreEventGroupTasksStillRunning
 .text          0x0000000000413f60      0xe40 Standard_Demo_Tasks\GenQTest.o
                0x0000000000413f60                vStartGenericQueueTasks
                0x0000000000414d36                xAreGenericQueueTasksStillRunning
 .text          0x0000000000414da0      0x820 Standard_Demo_Tasks\IntSemTest.o
                0x0000000000414da0                vStartInterruptSemaphoreTasks
                0x000000000041548e                vInterruptSemaphorePeriodicTest
                0x000000000041554b                xAreInterruptSemaphoreTasksStillRunning
 .text          0x00000000004155c0      0x3e0 Standard_Demo_Tasks\MessageBufferAMP.o
                0x00000000004155c0                vStartMessageBufferAMPTasks
                0x0000000000415868                vGenerateCoreBInterrupt
                0x0000000000415902                xAreMessageBufferAMPTasksStillRunning
 .text          0x00000000004159a0     0x13a0 Standard_Demo_Tasks\MessageBufferDemo.o
                0x00000000004159a0                vStartMessageBufferTasks
                0x0000000000416bfd                xAreMessageBufferTasksStillRunning
 .text          0x0000000000416d40      0x230 Standard_Demo_Tasks\PollQ.o
                0x0000000000416d40                vStartPolledQueueTasks
                0x0000000000416f1c                xArePollingQueuesStillRunning
 .text          0x0000000000416f70      0x560 Standard_Demo_Tasks\QPeek.o
                0x0000000000416f70                vStartQueuePeekTasks
                0x0000000000417495                xAreQueuePeekTasksStillRunning
 .text          0x00000000004174d0      0x330 Standard_Demo_Tasks\QueueOverwrite.o
                0x00000000004174d0                vStartQueueOverwriteTask
                0x000000000041768e                xIsQueueOverwriteTaskStillRunning
                0x00000000004176d7                vQueueOverwritePeriodicISRDemo
 .text          0x0000000000417800     0x1310 Standard_Demo_Tasks\QueueSet.o
                0x0000000000417800                vStartQueueSetTasks
                0x000000000041789d                xAreQueueSetTasksStillRunning
                0x0000000000417c10                vQueueSetAccessQueueSetFromISR
 .text          0x0000000000418b10      0x1c0 Standard_Demo_Tasks\QueueSetPolling.o
                0x0000000000418b10                vStartQueueSetPollingTask
                0x0000000000418c35                vQueueSetPollingInterruptAccess
                0x0000000000418c9e                xAreQueueSetPollTasksStillRunning
 .text          0x0000000000418cd0      0xeb0 Standard_Demo_Tasks\StaticAllocation.o
                0x0000000000418cd0                vStartStaticallyAllocatedTasks
                0x0000000000419b1f                xAreStaticAllocationTasksStillRunning
 .text          0x0000000000419b80     0x19e0 Standard_Demo_Tasks\StreamBufferDemo.o
                0x0000000000419b80                vStartStreamBufferTasks
                0x000000000041b1ac                vPeriodicStreamBufferProcessing
                0x000000000041b3f2                xAreStreamBufferTasksStillRunning
 .text          0x000000000041b560      0x290 Standard_Demo_Tasks\StreamBufferInterrupt.o
                0x000000000041b560                vStartStreamBufferInterruptDemo
                0x000000000041b6ff                vBasicStreamBufferSendFromISR
                0x000000000041b7af                xIsInterruptStreamBufferDemoStillRunning
 .text          0x000000000041b7f0     0x1040 Standard_Demo_Tasks\TaskNotify.o
                0x000000000041b7f0                vStartTaskNotifyTask
                0x000000000041c617                xNotifyTaskFromISR
                0x000000000041c767                xAreTaskNotificationTasksStillRunning
 .text          0x000000000041c830     0x1900 Standard_Demo_Tasks\TimerDemo.o
                0x000000000041c830                vStartTimerDemoTask
                0x000000000041c9bd                xAreTimerDemoTasksStillRunning
                0x000000000041d713                vTimerPeriodicISRTests
 .text          0x000000000041e130      0x770 Standard_Demo_Tasks\blocktim.o
                0x000000000041e130                vCreateBlockTimeTasks
                0x000000000041e827                xAreBlockTimeTestTasksStillRunning
 .text          0x000000000041e8a0      0x3c0 Standard_Demo_Tasks\countsem.o
                0x000000000041e8a0                vStartCountingSemaphoreTasks
                0x000000000041ebe8                xAreCountingSemaphoreTasksStillRunning
 .text          0x000000000041ec60      0x210 Standard_Demo_Tasks\death.o
                0x000000000041ec60                vCreateSuicidalTasks
                0x000000000041ede5                xIsCreateTaskStillRunning
 .text          0x000000000041ee70      0x540 Standard_Demo_Tasks\dynamic.o
                0x000000000041ee70                vStartDynamicPriorityTasks
                0x000000000041f31e                xAreDynamicPriorityTasksStillRunning
 .text          0x000000000041f3b0      0x610 Standard_Demo_Tasks\flop.o
                0x000000000041f3b0                vStartMathTasks
                0x000000000041f950                xAreMathsTaskStillRunning
 .text          0x000000000041f9c0      0x170 Standard_Demo_Tasks\integer.o
                0x000000000041f9c0                vStartIntegerMathTasks
                0x000000000041fab8                xAreIntegerMathsTaskStillRunning
 .text          0x000000000041fb30      0x420 Standard_Demo_Tasks\semtest.o
                0x000000000041fb30                vStartSemaphoreTasks
                0x000000000041fec8                xAreSemaphoreTasksStillRunning
 .text          0x000000000041ff50      0xb50 code_coverage_additions.o
                0x0000000000420a48                xRunCodeCoverageTestAdditions
 .text          0x0000000000420aa0      0x6b0 main.o
                0x0000000000420aa0                main
                0x0000000000420b1d                vApplicationMallocFailedHook
                0x0000000000420b3d                vApplicationIdleHook
                0x0000000000420b44                vApplicationStackOverflowHook
                0x0000000000420b6c                vApplicationTickHook
                0x0000000000420b73                vApplicationDaemonTaskStartupHook
                0x0000000000420b7a                vAssertCalled
                0x00000000004210d9                vApplicationGetIdleTaskMemory
                0x0000000000421112                vApplicationGetTimerTaskMemory
 .text          0x0000000000421150      0x210 main_blinky.o
                0x0000000000421150                main_blinky
 .text          0x0000000000421360     0x1100 main_full.o
                0x0000000000421360                main_full
                0x0000000000421917                vFullDemoIdleFunction
                0x0000000000421a59                vFullDemoTickHookFunction
 .text          0x0000000000422460       0xf0 main_task1.o
                0x0000000000422460                main_task1
 .text          0x0000000000422550      0x150 main_task2.o
                0x0000000000422550                main_task2
 .text          0x00000000004226a0      0x150 main_task3.o
                0x00000000004226a0                main_task3
 .text          0x00000000004227f0      0x210 main_task4.o
                0x00000000004227f0                fun1
                0x00000000004228a6                fun2
                0x000000000042298c                main_task4
 .text          0x0000000000422a00        0x8 K:/embedded/General Tools/General Tools/mingw64/bin/../lib/gcc/x86_64-w64-mingw32/6.2.0/../../../../x86_64-w64-mingw32/lib/../lib/libwinmm.a(dmces00151.o)
                0x0000000000422a00                timeGetDevCaps
 .text          0x0000000000422a08        0x8 K:/embedded/General Tools/General Tools/mingw64/bin/../lib/gcc/x86_64-w64-mingw32/6.2.0/../../../../x86_64-w64-mingw32/lib/../lib/libwinmm.a(dmces00150.o)
                0x0000000000422a08                timeEndPeriod
 .text          0x0000000000422a10        0x8 K:/embedded/General Tools/General Tools/mingw64/bin/../lib/gcc/x86_64-w64-mingw32/6.2.0/../../../../x86_64-w64-mingw32/lib/../lib/libwinmm.a(dmces00149.o)
                0x0000000000422a10                timeBeginPeriod
 *fill*         0x0000000000422a18        0x8 
 .text          0x0000000000422a20        0x0 K:/embedded/General Tools/General Tools/mingw64/bin/../lib/gcc/x86_64-w64-mingw32/6.2.0/../../../../x86_64-w64-mingw32/lib/../lib/libwinmm.a(dmceh.o)
 .text          0x0000000000422a20        0x0 K:/embedded/General Tools/General Tools/mingw64/bin/../lib/gcc/x86_64-w64-mingw32/6.2.0/../../../../x86_64-w64-mingw32/lib/../lib/libwinmm.a(dmcet.o)
 .text          0x0000000000422a20       0xd0 K:/embedded/General Tools/General Tools/mingw64/bin/../lib/gcc/x86_64-w64-mingw32/6.2.0/../../../../x86_64-w64-mingw32/lib/../lib/libmingw32.a(lib64_libmingw32_a-atonexit.o)
                0x0000000000422a20                mingw_onexit
                0x0000000000422ad0                atexit
 .text          0x0000000000422af0       0xc0 K:/embedded/General Tools/General Tools/mingw64/bin/../lib/gcc/x86_64-w64-mingw32/6.2.0/../../../../x86_64-w64-mingw32/lib/../lib/libmingw32.a(lib64_libmingw32_a-gccmain.o)
                0x0000000000422af0                __do_global_dtors
                0x0000000000422b30                __do_global_ctors
                0x0000000000422b90                __main
 .text          0x0000000000422bb0        0x0 K:/embedded/General Tools/General Tools/mingw64/bin/../lib/gcc/x86_64-w64-mingw32/6.2.0/../../../../x86_64-w64-mingw32/lib/../lib/libmingw32.a(lib64_libmingw32_a-natstart.o)
 .text          0x0000000000422bb0        0x0 K:/embedded/General Tools/General Tools/mingw64/bin/../lib/gcc/x86_64-w64-mingw32/6.2.0/../../../../x86_64-w64-mingw32/lib/../lib/libmingw32.a(lib64_libmingw32_a-wildcard.o)
 .text          0x0000000000422bb0       0x10 K:/embedded/General Tools/General Tools/mingw64/bin/../lib/gcc/x86_64-w64-mingw32/6.2.0/../../../../x86_64-w64-mingw32/lib/../lib/libmingw32.a(lib64_libmingw32_a-charmax.o)
 .text          0x0000000000422bc0       0x10 K:/embedded/General Tools/General Tools/mingw64/bin/../lib/gcc/x86_64-w64-mingw32/6.2.0/../../../../x86_64-w64-mingw32/lib/../lib/libmingw32.a(lib64_libmingw32_a-dllargv.o)
                0x0000000000422bc0                _setargv
 .text          0x0000000000422bd0      0x1e0 K:/embedded/General Tools/General Tools/mingw64/bin/../lib/gcc/x86_64-w64-mingw32/6.2.0/../../../../x86_64-w64-mingw32/lib/../lib/libmingw32.a(lib64_libmingw32_a-gs_support.o)
                0x0000000000422bd0                __security_init_cookie
                0x0000000000422cb0                __report_gsfailure
 .text          0x0000000000422db0        0x0 K:/embedded/General Tools/General Tools/mingw64/bin/../lib/gcc/x86_64-w64-mingw32/6.2.0/../../../../x86_64-w64-mingw32/lib/../lib/libmingw32.a(lib64_libmingw32_a-_newmode.o)
 .text          0x0000000000422db0       0xb0 K:/embedded/General Tools/General Tools/mingw64/bin/../lib/gcc/x86_64-w64-mingw32/6.2.0/../../../../x86_64-w64-mingw32/lib/../lib/libmingw32.a(lib64_libmingw32_a-tlssup.o)
                0x0000000000422de0                __dyn_tls_init
                0x0000000000422e50                __tlregdtor
 .text          0x0000000000422e60        0x0 K:/embedded/General Tools/General Tools/mingw64/bin/../lib/gcc/x86_64-w64-mingw32/6.2.0/../../../../x86_64-w64-mingw32/lib/../lib/libmingw32.a(lib64_libmingw32_a-cinitexe.o)
 .text          0x0000000000422e60      0x160 K:/embedded/General Tools/General Tools/mingw64/bin/../lib/gcc/x86_64-w64-mingw32/6.2.0/../../../../x86_64-w64-mingw32/lib/../lib/libmingw32.a(lib64_libmingw32_a-merr.o)
                0x0000000000422e60                __mingw_raise_matherr
                0x0000000000422eb0                __mingw_setusermatherr
                0x0000000000422ec0                _matherr
 .text          0x0000000000422fc0       0x10 K:/embedded/General Tools/General Tools/mingw64/bin/../lib/gcc/x86_64-w64-mingw32/6.2.0/../../../../x86_64-w64-mingw32/lib/../lib/libmingw32.a(lib64_libmingw32_a-CRT_fp10.o)
                0x0000000000422fc0                fpreset
                0x0000000000422fc0                _fpreset
 .text          0x0000000000422fd0       0x20 K:/embedded/General Tools/General Tools/mingw64/bin/../lib/gcc/x86_64-w64-mingw32/6.2.0/../../../../x86_64-w64-mingw32/lib/../lib/libmingw32.a(lib64_libmingw32_a-mingw_helpers.o)
                0x0000000000422fd0                _decode_pointer
                0x0000000000422fe0                _encode_pointer
 .text          0x0000000000422ff0      0x4e0 K:/embedded/General Tools/General Tools/mingw64/bin/../lib/gcc/x86_64-w64-mingw32/6.2.0/../../../../x86_64-w64-mingw32/lib/../lib/libmingw32.a(lib64_libmingw32_a-pseudo-reloc.o)
                0x00000000004231d0                _pei386_runtime_relocator
 .text          0x00000000004234d0        0x0 K:/embedded/General Tools/General Tools/mingw64/bin/../lib/gcc/x86_64-w64-mingw32/6.2.0/../../../../x86_64-w64-mingw32/lib/../lib/libmingw32.a(lib64_libmingw32_a-xtxtmode.o)
 .text          0x00000000004234d0      0x460 K:/embedded/General Tools/General Tools/mingw64/bin/../lib/gcc/x86_64-w64-mingw32/6.2.0/../../../../x86_64-w64-mingw32/lib/../lib/libmingw32.a(lib64_libmingw32_a-crt_handler.o)
                0x00000000004234d0                __mingw_SEH_error_handler
                0x0000000000423680                __mingw_init_ehandler
                0x0000000000423770                _gnu_exception_handler
 .text          0x0000000000423930      0x270 K:/embedded/General Tools/General Tools/mingw64/bin/../lib/gcc/x86_64-w64-mingw32/6.2.0/../../../../x86_64-w64-mingw32/lib/../lib/libmingw32.a(lib64_libmingw32_a-tlsthrd.o)
                0x00000000004239a0                ___w64_mingwthr_add_key_dtor
                0x0000000000423a20                ___w64_mingwthr_remove_key_dtor
                0x0000000000423ac0                __mingw_TLScallback
 .text          0x0000000000423ba0        0x0 K:/embedded/General Tools/General Tools/mingw64/bin/../lib/gcc/x86_64-w64-mingw32/6.2.0/../../../../x86_64-w64-mingw32/lib/../lib/libmingw32.a(lib64_libmingw32_a-tlsmcrt.o)
 .text          0x0000000000423ba0        0x0 K:/embedded/General Tools/General Tools/mingw64/bin/../lib/gcc/x86_64-w64-mingw32/6.2.0/../../../../x86_64-w64-mingw32/lib/../lib/libmingw32.a(lib64_libmingw32_a-pseudo-reloc-list.o)
 .text          0x0000000000423ba0      0x3a0 K:/embedded/General Tools/General Tools/mingw64/bin/../lib/gcc/x86_64-w64-mingw32/6.2.0/../../../../x86_64-w64-mingw32/lib/../lib/libmingw32.a(lib64_libmingw32_a-pesect.o)
                0x0000000000423bc0                _ValidateImageBase
                0x0000000000423be0                _FindPESection
                0x0000000000423c30                _FindPESectionByName
                0x0000000000423cd0                __mingw_GetSectionForAddress
                0x0000000000423d20                __mingw_GetSectionCount
                0x0000000000423d60                _FindPESectionExec
                0x0000000000423df0                _GetPEImageBase
                0x0000000000423e30                _IsNonwritableInCurrentImage
                0x0000000000423e90                __mingw_enum_import_library_names
 .text          0x0000000000423f40       0x40 K:/embedded/General Tools/General Tools/mingw64/bin/../lib/gcc/x86_64-w64-mingw32/6.2.0/libgcc.a(_chkstk_ms.o)
                0x0000000000423f40                ___chkstk_ms
 .text          0x0000000000423f80        0x0 K:/embedded/General Tools/General Tools/mingw64/bin/../lib/gcc/x86_64-w64-mingw32/6.2.0/libgcc.a(_ctors.o)
 .text          0x0000000000423f80        0x0 K:/embedded/General Tools/General Tools/mingw64/bin/../lib/gcc/x86_64-w64-mingw32/6.2.0/../../../../x86_64-w64-mingw32/lib/../lib/libmingwex.a(lib64_libmingwex_a-mingw_matherr.o)
 .text          0x0000000000423f80        0x8 K:/embedded/General Tools/General Tools/mingw64/bin/../lib/gcc/x86_64-w64-mingw32/6.2.0/../../../../x86_64-w64-mingw32/lib/../lib/libmsvcrt.a(dekes01240.o)
                0x0000000000423f80                vfprintf
 .text          0x0000000000423f88        0x8 K:/embedded/General Tools/General Tools/mingw64/bin/../lib/gcc/x86_64-w64-mingw32/6.2.0/../../../../x86_64-w64-mingw32/lib/../lib/libmsvcrt.a(dekes01208.o)
                0x0000000000423f88                strncmp
 .text          0x0000000000423f90        0x8 K:/embedded/General Tools/General Tools/mingw64/bin/../lib/gcc/x86_64-w64-mingw32/6.2.0/../../../../x86_64-w64-mingw32/lib/../lib/libmsvcrt.a(dekes01205.o)
                0x0000000000423f90                strlen
 .text          0x0000000000423f98        0x8 K:/embedded/General Tools/General Tools/mingw64/bin/../lib/gcc/x86_64-w64-mingw32/6.2.0/../../../../x86_64-w64-mingw32/lib/../lib/libmsvcrt.a(dekes01198.o)
                0x0000000000423f98                strcmp
 .text          0x0000000000423fa0        0x8 K:/embedded/General Tools/General Tools/mingw64/bin/../lib/gcc/x86_64-w64-mingw32/6.2.0/../../../../x86_64-w64-mingw32/lib/../lib/libmsvcrt.a(dekes01189.o)
                0x0000000000423fa0                sprintf
 .text          0x0000000000423fa8        0x8 K:/embedded/General Tools/General Tools/mingw64/bin/../lib/gcc/x86_64-w64-mingw32/6.2.0/../../../../x86_64-w64-mingw32/lib/../lib/libmsvcrt.a(dekes01184.o)
                0x0000000000423fa8                signal
 .text          0x0000000000423fb0        0x8 K:/embedded/General Tools/General Tools/mingw64/bin/../lib/gcc/x86_64-w64-mingw32/6.2.0/../../../../x86_64-w64-mingw32/lib/../lib/libmsvcrt.a(dekes01183.o)
                0x0000000000423fb0                setvbuf
 .text          0x0000000000423fb8        0x8 K:/embedded/General Tools/General Tools/mingw64/bin/../lib/gcc/x86_64-w64-mingw32/6.2.0/../../../../x86_64-w64-mingw32/lib/../lib/libmsvcrt.a(dekes01173.o)
                0x0000000000423fb8                rand
 .text          0x0000000000423fc0        0x8 K:/embedded/General Tools/General Tools/mingw64/bin/../lib/gcc/x86_64-w64-mingw32/6.2.0/../../../../x86_64-w64-mingw32/lib/../lib/libmsvcrt.a(dekes01167.o)
                0x0000000000423fc0                puts
 .text          0x0000000000423fc8        0x8 K:/embedded/General Tools/General Tools/mingw64/bin/../lib/gcc/x86_64-w64-mingw32/6.2.0/../../../../x86_64-w64-mingw32/lib/../lib/libmsvcrt.a(dekes01166.o)
                0x0000000000423fc8                putchar
 .text          0x0000000000423fd0        0x8 K:/embedded/General Tools/General Tools/mingw64/bin/../lib/gcc/x86_64-w64-mingw32/6.2.0/../../../../x86_64-w64-mingw32/lib/../lib/libmsvcrt.a(dekes01163.o)
                0x0000000000423fd0                printf
 .text          0x0000000000423fd8        0x8 K:/embedded/General Tools/General Tools/mingw64/bin/../lib/gcc/x86_64-w64-mingw32/6.2.0/../../../../x86_64-w64-mingw32/lib/../lib/libmsvcrt.a(dekes01156.o)
                0x0000000000423fd8                memset
 .text          0x0000000000423fe0        0x8 K:/embedded/General Tools/General Tools/mingw64/bin/../lib/gcc/x86_64-w64-mingw32/6.2.0/../../../../x86_64-w64-mingw32/lib/../lib/libmsvcrt.a(dekes01154.o)
                0x0000000000423fe0                memcpy
 .text          0x0000000000423fe8        0x8 K:/embedded/General Tools/General Tools/mingw64/bin/../lib/gcc/x86_64-w64-mingw32/6.2.0/../../../../x86_64-w64-mingw32/lib/../lib/libmsvcrt.a(dekes01153.o)
                0x0000000000423fe8                memcmp
 .text          0x0000000000423ff0        0x8 K:/embedded/General Tools/General Tools/mingw64/bin/../lib/gcc/x86_64-w64-mingw32/6.2.0/../../../../x86_64-w64-mingw32/lib/../lib/libmsvcrt.a(dekes01146.o)
                0x0000000000423ff0                malloc
 .text          0x0000000000423ff8        0x8 K:/embedded/General Tools/General Tools/mingw64/bin/../lib/gcc/x86_64-w64-mingw32/6.2.0/../../../../x86_64-w64-mingw32/lib/../lib/libmsvcrt.a(dekes01099.o)
                0x0000000000423ff8                fwrite
 .text          0x0000000000424000        0x8 K:/embedded/General Tools/General Tools/mingw64/bin/../lib/gcc/x86_64-w64-mingw32/6.2.0/../../../../x86_64-w64-mingw32/lib/../lib/libmsvcrt.a(dekes01087.o)
                0x0000000000424000                free
 .text          0x0000000000424008        0x8 K:/embedded/General Tools/General Tools/mingw64/bin/../lib/gcc/x86_64-w64-mingw32/6.2.0/../../../../x86_64-w64-mingw32/lib/../lib/libmsvcrt.a(dekes01080.o)
                0x0000000000424008                fprintf
 .text          0x0000000000424010        0x8 K:/embedded/General Tools/General Tools/mingw64/bin/../lib/gcc/x86_64-w64-mingw32/6.2.0/../../../../x86_64-w64-mingw32/lib/../lib/libmsvcrt.a(dekes01078.o)
                0x0000000000424010                fopen
 .text          0x0000000000424018        0x8 K:/embedded/General Tools/General Tools/mingw64/bin/../lib/gcc/x86_64-w64-mingw32/6.2.0/../../../../x86_64-w64-mingw32/lib/../lib/libmsvcrt.a(dekes01068.o)
                0x0000000000424018                fflush
 .text          0x0000000000424020        0x8 K:/embedded/General Tools/General Tools/mingw64/bin/../lib/gcc/x86_64-w64-mingw32/6.2.0/../../../../x86_64-w64-mingw32/lib/../lib/libmsvcrt.a(dekes01065.o)
                0x0000000000424020                fclose
 .text          0x0000000000424028        0x8 K:/embedded/General Tools/General Tools/mingw64/bin/../lib/gcc/x86_64-w64-mingw32/6.2.0/../../../../x86_64-w64-mingw32/lib/../lib/libmsvcrt.a(dekes01061.o)
                0x0000000000424028                exit
 .text          0x0000000000424030        0x8 K:/embedded/General Tools/General Tools/mingw64/bin/../lib/gcc/x86_64-w64-mingw32/6.2.0/../../../../x86_64-w64-mingw32/lib/../lib/libmsvcrt.a(dekes01048.o)
                0x0000000000424030                calloc
 .text          0x0000000000424038        0x8 K:/embedded/General Tools/General Tools/mingw64/bin/../lib/gcc/x86_64-w64-mingw32/6.2.0/../../../../x86_64-w64-mingw32/lib/../lib/libmsvcrt.a(dekes01028.o)
                0x0000000000424038                abort
 .text          0x0000000000424040        0x8 K:/embedded/General Tools/General Tools/mingw64/bin/../lib/gcc/x86_64-w64-mingw32/6.2.0/../../../../x86_64-w64-mingw32/lib/../lib/libmsvcrt.a(dekes00820.o)
                0x0000000000424040                _unlock
 .text          0x0000000000424048        0x8 K:/embedded/General Tools/General Tools/mingw64/bin/../lib/gcc/x86_64-w64-mingw32/6.2.0/../../../../x86_64-w64-mingw32/lib/../lib/libmsvcrt.a(dekes00611.o)
                0x0000000000424048                _onexit
 .text          0x0000000000424050        0x8 K:/embedded/General Tools/General Tools/mingw64/bin/../lib/gcc/x86_64-w64-mingw32/6.2.0/../../../../x86_64-w64-mingw32/lib/../lib/libmsvcrt.a(dekes00438.o)
                0x0000000000424050                _lock
 .text          0x0000000000424058        0x8 K:/embedded/General Tools/General Tools/mingw64/bin/../lib/gcc/x86_64-w64-mingw32/6.2.0/../../../../x86_64-w64-mingw32/lib/../lib/libmsvcrt.a(dekes00330.o)
                0x0000000000424058                _initterm
 .text          0x0000000000424060        0x0 K:/embedded/General Tools/General Tools/mingw64/bin/../lib/gcc/x86_64-w64-mingw32/6.2.0/../../../../x86_64-w64-mingw32/lib/../lib/libmsvcrt.a(dekes00252.o)
 .text          0x0000000000424060        0x8 K:/embedded/General Tools/General Tools/mingw64/bin/../lib/gcc/x86_64-w64-mingw32/6.2.0/../../../../x86_64-w64-mingw32/lib/../lib/libmsvcrt.a(dekes00141.o)
                0x0000000000424060                _cexit
 .text          0x0000000000424068        0x8 K:/embedded/General Tools/General Tools/mingw64/bin/../lib/gcc/x86_64-w64-mingw32/6.2.0/../../../../x86_64-w64-mingw32/lib/../lib/libmsvcrt.a(dekes00123.o)
                0x0000000000424068                _amsg_exit
 .text          0x0000000000424070        0x0 K:/embedded/General Tools/General Tools/mingw64/bin/../lib/gcc/x86_64-w64-mingw32/6.2.0/../../../../x86_64-w64-mingw32/lib/../lib/libmsvcrt.a(dekes00116.o)
 .text          0x0000000000424070        0x8 K:/embedded/General Tools/General Tools/mingw64/bin/../lib/gcc/x86_64-w64-mingw32/6.2.0/../../../../x86_64-w64-mingw32/lib/../lib/libmsvcrt.a(dekes00099.o)
                0x0000000000424070                __setusermatherr
 .text          0x0000000000424078        0x8 K:/embedded/General Tools/General Tools/mingw64/bin/../lib/gcc/x86_64-w64-mingw32/6.2.0/../../../../x86_64-w64-mingw32/lib/../lib/libmsvcrt.a(dekes00097.o)
                0x0000000000424078                __set_app_type
 .text          0x0000000000424080        0x8 K:/embedded/General Tools/General Tools/mingw64/bin/../lib/gcc/x86_64-w64-mingw32/6.2.0/../../../../x86_64-w64-mingw32/lib/../lib/libmsvcrt.a(dekes00091.o)
                0x0000000000424080                __lconv_init
 .text          0x0000000000424088        0x8 K:/embedded/General Tools/General Tools/mingw64/bin/../lib/gcc/x86_64-w64-mingw32/6.2.0/../../../../x86_64-w64-mingw32/lib/../lib/libmsvcrt.a(dekes00083.o)
                0x0000000000424088                __iob_func
 .text          0x0000000000424090        0x0 K:/embedded/General Tools/General Tools/mingw64/bin/../lib/gcc/x86_64-w64-mingw32/6.2.0/../../../../x86_64-w64-mingw32/lib/../lib/libmsvcrt.a(dekes00082.o)
 .text          0x0000000000424090        0x8 K:/embedded/General Tools/General Tools/mingw64/bin/../lib/gcc/x86_64-w64-mingw32/6.2.0/../../../../x86_64-w64-mingw32/lib/../lib/libmsvcrt.a(dekes00081.o)
                0x0000000000424090                __getmainargs
 .text          0x0000000000424098        0x8 K:/embedded/General Tools/General Tools/mingw64/bin/../lib/gcc/x86_64-w64-mingw32/6.2.0/../../../../x86_64-w64-mingw32/lib/../lib/libmsvcrt.a(dekes00078.o)
                0x0000000000424098                __dllonexit
 .text          0x00000000004240a0        0x8 K:/embedded/General Tools/General Tools/mingw64/bin/../lib/gcc/x86_64-w64-mingw32/6.2.0/../../../../x86_64-w64-mingw32/lib/../lib/libmsvcrt.a(dekes00055.o)
                0x00000000004240a0                __C_specific_handler
 *fill*         0x00000000004240a8        0x8 
 .text          0x00000000004240b0       0x20 K:/embedded/General Tools/General Tools/mingw64/bin/../lib/gcc/x86_64-w64-mingw32/6.2.0/../../../../x86_64-w64-mingw32/lib/../lib/libmsvcrt.a(lib64_libmsvcrt_a-invalid_parameter_handler.o)
                0x00000000004240b0                _get_invalid_parameter_handler
                0x00000000004240c0                _set_invalid_parameter_handler
 .text          0x00000000004240d0        0x0 K:/embedded/General Tools/General Tools/mingw64/bin/../lib/gcc/x86_64-w64-mingw32/6.2.0/../../../../x86_64-w64-mingw32/lib/../lib/libmsvcrt.a(dekeh.o)
 .text          0x00000000004240d0        0x0 K:/embedded/General Tools/General Tools/mingw64/bin/../lib/gcc/x86_64-w64-mingw32/6.2.0/../../../../x86_64-w64-mingw32/lib/../lib/libmsvcrt.a(deket.o)
 .text          0x00000000004240d0        0x8 K:/embedded/General Tools/General Tools/mingw64/bin/../lib/gcc/x86_64-w64-mingw32/6.2.0/../../../../x86_64-w64-mingw32/lib/../lib/libkernel32.a(dmmds01274.o)
                0x00000000004240d0                WaitForSingleObject
 .text          0x00000000004240d8        0x8 K:/embedded/General Tools/General Tools/mingw64/bin/../lib/gcc/x86_64-w64-mingw32/6.2.0/../../../../x86_64-w64-mingw32/lib/../lib/libkernel32.a(dmmds01272.o)
                0x00000000004240d8                WaitForMultipleObjects
 .text          0x00000000004240e0        0x8 K:/embedded/General Tools/General Tools/mingw64/bin/../lib/gcc/x86_64-w64-mingw32/6.2.0/../../../../x86_64-w64-mingw32/lib/../lib/libkernel32.a(dmmds01266.o)
                0x00000000004240e0                VirtualQuery
 .text          0x00000000004240e8        0x8 K:/embedded/General Tools/General Tools/mingw64/bin/../lib/gcc/x86_64-w64-mingw32/6.2.0/../../../../x86_64-w64-mingw32/lib/../lib/libkernel32.a(dmmds01264.o)
                0x00000000004240e8                VirtualProtect
 .text          0x00000000004240f0        0x8 K:/embedded/General Tools/General Tools/mingw64/bin/../lib/gcc/x86_64-w64-mingw32/6.2.0/../../../../x86_64-w64-mingw32/lib/../lib/libkernel32.a(dmmds01234.o)
                0x00000000004240f0                UnhandledExceptionFilter
 .text          0x00000000004240f8        0x8 K:/embedded/General Tools/General Tools/mingw64/bin/../lib/gcc/x86_64-w64-mingw32/6.2.0/../../../../x86_64-w64-mingw32/lib/../lib/libkernel32.a(dmmds01221.o)
                0x00000000004240f8                TlsGetValue
 .text          0x0000000000424100        0x8 K:/embedded/General Tools/General Tools/mingw64/bin/../lib/gcc/x86_64-w64-mingw32/6.2.0/../../../../x86_64-w64-mingw32/lib/../lib/libkernel32.a(dmmds01215.o)
                0x0000000000424100                TerminateThread
 .text          0x0000000000424108        0x8 K:/embedded/General Tools/General Tools/mingw64/bin/../lib/gcc/x86_64-w64-mingw32/6.2.0/../../../../x86_64-w64-mingw32/lib/../lib/libkernel32.a(dmmds01214.o)
                0x0000000000424108                TerminateProcess
 .text          0x0000000000424110        0x8 K:/embedded/General Tools/General Tools/mingw64/bin/../lib/gcc/x86_64-w64-mingw32/6.2.0/../../../../x86_64-w64-mingw32/lib/../lib/libkernel32.a(dmmds01208.o)
                0x0000000000424110                SuspendThread
 .text          0x0000000000424118        0x8 K:/embedded/General Tools/General Tools/mingw64/bin/../lib/gcc/x86_64-w64-mingw32/6.2.0/../../../../x86_64-w64-mingw32/lib/../lib/libkernel32.a(dmmds01200.o)
                0x0000000000424118                Sleep
 .text          0x0000000000424120        0x8 K:/embedded/General Tools/General Tools/mingw64/bin/../lib/gcc/x86_64-w64-mingw32/6.2.0/../../../../x86_64-w64-mingw32/lib/../lib/libkernel32.a(dmmds01187.o)
                0x0000000000424120                SetUnhandledExceptionFilter
 .text          0x0000000000424128        0x8 K:/embedded/General Tools/General Tools/mingw64/bin/../lib/gcc/x86_64-w64-mingw32/6.2.0/../../../../x86_64-w64-mingw32/lib/../lib/libkernel32.a(dmmds01175.o)
                0x0000000000424128                SetThreadPriorityBoost
 .text          0x0000000000424130        0x8 K:/embedded/General Tools/General Tools/mingw64/bin/../lib/gcc/x86_64-w64-mingw32/6.2.0/../../../../x86_64-w64-mingw32/lib/../lib/libkernel32.a(dmmds01174.o)
                0x0000000000424130                SetThreadPriority
 .text          0x0000000000424138        0x8 K:/embedded/General Tools/General Tools/mingw64/bin/../lib/gcc/x86_64-w64-mingw32/6.2.0/../../../../x86_64-w64-mingw32/lib/../lib/libkernel32.a(dmmds01165.o)
                0x0000000000424138                SetThreadAffinityMask
 .text          0x0000000000424140        0x8 K:/embedded/General Tools/General Tools/mingw64/bin/../lib/gcc/x86_64-w64-mingw32/6.2.0/../../../../x86_64-w64-mingw32/lib/../lib/libkernel32.a(dmmds01146.o)
                0x0000000000424140                SetPriorityClass
 .text          0x0000000000424148        0x8 K:/embedded/General Tools/General Tools/mingw64/bin/../lib/gcc/x86_64-w64-mingw32/6.2.0/../../../../x86_64-w64-mingw32/lib/../lib/libkernel32.a(dmmds01111.o)
                0x0000000000424148                SetEvent
 .text          0x0000000000424150        0x8 K:/embedded/General Tools/General Tools/mingw64/bin/../lib/gcc/x86_64-w64-mingw32/6.2.0/../../../../x86_64-w64-mingw32/lib/../lib/libkernel32.a(dmmds01067.o)
                0x0000000000424150                SetConsoleCtrlHandler
 .text          0x0000000000424158        0x8 K:/embedded/General Tools/General Tools/mingw64/bin/../lib/gcc/x86_64-w64-mingw32/6.2.0/../../../../x86_64-w64-mingw32/lib/../lib/libkernel32.a(dmmds01044.o)
                0x0000000000424158                RtlVirtualUnwind
 .text          0x0000000000424160        0x8 K:/embedded/General Tools/General Tools/mingw64/bin/../lib/gcc/x86_64-w64-mingw32/6.2.0/../../../../x86_64-w64-mingw32/lib/../lib/libkernel32.a(dmmds01037.o)
                0x0000000000424160                RtlLookupFunctionEntry
 .text          0x0000000000424168        0x8 K:/embedded/General Tools/General Tools/mingw64/bin/../lib/gcc/x86_64-w64-mingw32/6.2.0/../../../../x86_64-w64-mingw32/lib/../lib/libkernel32.a(dmmds01030.o)
                0x0000000000424168                RtlCaptureContext
 .text          0x0000000000424170        0x8 K:/embedded/General Tools/General Tools/mingw64/bin/../lib/gcc/x86_64-w64-mingw32/6.2.0/../../../../x86_64-w64-mingw32/lib/../lib/libkernel32.a(dmmds01029.o)
                0x0000000000424170                RtlAddFunctionTable
 .text          0x0000000000424178        0x8 K:/embedded/General Tools/General Tools/mingw64/bin/../lib/gcc/x86_64-w64-mingw32/6.2.0/../../../../x86_64-w64-mingw32/lib/../lib/libkernel32.a(dmmds01028.o)
                0x0000000000424178                ResumeThread
 .text          0x0000000000424180        0x8 K:/embedded/General Tools/General Tools/mingw64/bin/../lib/gcc/x86_64-w64-mingw32/6.2.0/../../../../x86_64-w64-mingw32/lib/../lib/libkernel32.a(dmmds01024.o)
                0x0000000000424180                ResetEvent
 .text          0x0000000000424188        0x8 K:/embedded/General Tools/General Tools/mingw64/bin/../lib/gcc/x86_64-w64-mingw32/6.2.0/../../../../x86_64-w64-mingw32/lib/../lib/libkernel32.a(dmmds01003.o)
                0x0000000000424188                ReleaseMutex
 .text          0x0000000000424190        0x8 K:/embedded/General Tools/General Tools/mingw64/bin/../lib/gcc/x86_64-w64-mingw32/6.2.0/../../../../x86_64-w64-mingw32/lib/../lib/libkernel32.a(dmmds00959.o)
                0x0000000000424190                QueryPerformanceFrequency
 .text          0x0000000000424198        0x8 K:/embedded/General Tools/General Tools/mingw64/bin/../lib/gcc/x86_64-w64-mingw32/6.2.0/../../../../x86_64-w64-mingw32/lib/../lib/libkernel32.a(dmmds00958.o)
                0x0000000000424198                QueryPerformanceCounter
 .text          0x00000000004241a0        0x8 K:/embedded/General Tools/General Tools/mingw64/bin/../lib/gcc/x86_64-w64-mingw32/6.2.0/../../../../x86_64-w64-mingw32/lib/../lib/libkernel32.a(dmmds00844.o)
                0x00000000004241a0                LeaveCriticalSection
 .text          0x00000000004241a8        0x8 K:/embedded/General Tools/General Tools/mingw64/bin/../lib/gcc/x86_64-w64-mingw32/6.2.0/../../../../x86_64-w64-mingw32/lib/../lib/libkernel32.a(dmmds00762.o)
                0x00000000004241a8                InitializeCriticalSection
 .text          0x00000000004241b0        0x8 K:/embedded/General Tools/General Tools/mingw64/bin/../lib/gcc/x86_64-w64-mingw32/6.2.0/../../../../x86_64-w64-mingw32/lib/../lib/libkernel32.a(dmmds00678.o)
                0x00000000004241b0                GetTickCount
 .text          0x00000000004241b8        0x8 K:/embedded/General Tools/General Tools/mingw64/bin/../lib/gcc/x86_64-w64-mingw32/6.2.0/../../../../x86_64-w64-mingw32/lib/../lib/libkernel32.a(dmmds00665.o)
                0x00000000004241b8                GetThreadContext
 .text          0x00000000004241c0        0x8 K:/embedded/General Tools/General Tools/mingw64/bin/../lib/gcc/x86_64-w64-mingw32/6.2.0/../../../../x86_64-w64-mingw32/lib/../lib/libkernel32.a(dmmds00651.o)
                0x00000000004241c0                GetSystemTimeAsFileTime
 .text          0x00000000004241c8        0x8 K:/embedded/General Tools/General Tools/mingw64/bin/../lib/gcc/x86_64-w64-mingw32/6.2.0/../../../../x86_64-w64-mingw32/lib/../lib/libkernel32.a(dmmds00645.o)
                0x00000000004241c8                GetSystemInfo
 .text          0x00000000004241d0        0x8 K:/embedded/General Tools/General Tools/mingw64/bin/../lib/gcc/x86_64-w64-mingw32/6.2.0/../../../../x86_64-w64-mingw32/lib/../lib/libkernel32.a(dmmds00628.o)
                0x00000000004241d0                GetStartupInfoA
 .text          0x00000000004241d8        0x8 K:/embedded/General Tools/General Tools/mingw64/bin/../lib/gcc/x86_64-w64-mingw32/6.2.0/../../../../x86_64-w64-mingw32/lib/../lib/libkernel32.a(dmmds00599.o)
                0x00000000004241d8                GetProcAddress
 .text          0x00000000004241e0        0x8 K:/embedded/General Tools/General Tools/mingw64/bin/../lib/gcc/x86_64-w64-mingw32/6.2.0/../../../../x86_64-w64-mingw32/lib/../lib/libkernel32.a(dmmds00549.o)
                0x00000000004241e0                GetModuleHandleA
 .text          0x00000000004241e8        0x8 K:/embedded/General Tools/General Tools/mingw64/bin/../lib/gcc/x86_64-w64-mingw32/6.2.0/../../../../x86_64-w64-mingw32/lib/../lib/libkernel32.a(dmmds00529.o)
                0x00000000004241e8                GetLastError
 .text          0x00000000004241f0        0x8 K:/embedded/General Tools/General Tools/mingw64/bin/../lib/gcc/x86_64-w64-mingw32/6.2.0/../../../../x86_64-w64-mingw32/lib/../lib/libkernel32.a(dmmds00467.o)
                0x00000000004241f0                GetCurrentThreadId
 .text          0x00000000004241f8        0x8 K:/embedded/General Tools/General Tools/mingw64/bin/../lib/gcc/x86_64-w64-mingw32/6.2.0/../../../../x86_64-w64-mingw32/lib/../lib/libkernel32.a(dmmds00466.o)
                0x00000000004241f8                GetCurrentThread
 .text          0x0000000000424200        0x8 K:/embedded/General Tools/General Tools/mingw64/bin/../lib/gcc/x86_64-w64-mingw32/6.2.0/../../../../x86_64-w64-mingw32/lib/../lib/libkernel32.a(dmmds00463.o)
                0x0000000000424200                GetCurrentProcessId
 .text          0x0000000000424208        0x8 K:/embedded/General Tools/General Tools/mingw64/bin/../lib/gcc/x86_64-w64-mingw32/6.2.0/../../../../x86_64-w64-mingw32/lib/../lib/libkernel32.a(dmmds00462.o)
                0x0000000000424208                GetCurrentProcess
 .text          0x0000000000424210        0x8 K:/embedded/General Tools/General Tools/mingw64/bin/../lib/gcc/x86_64-w64-mingw32/6.2.0/../../../../x86_64-w64-mingw32/lib/../lib/libkernel32.a(dmmds00295.o)
                0x0000000000424210                ExitThread
 .text          0x0000000000424218        0x8 K:/embedded/General Tools/General Tools/mingw64/bin/../lib/gcc/x86_64-w64-mingw32/6.2.0/../../../../x86_64-w64-mingw32/lib/../lib/libkernel32.a(dmmds00249.o)
                0x0000000000424218                EnterCriticalSection
 .text          0x0000000000424220        0x8 K:/embedded/General Tools/General Tools/mingw64/bin/../lib/gcc/x86_64-w64-mingw32/6.2.0/../../../../x86_64-w64-mingw32/lib/../lib/libkernel32.a(dmmds00216.o)
                0x0000000000424220                DeleteCriticalSection
 .text          0x0000000000424228        0x8 K:/embedded/General Tools/General Tools/mingw64/bin/../lib/gcc/x86_64-w64-mingw32/6.2.0/../../../../x86_64-w64-mingw32/lib/../lib/libkernel32.a(dmmds00186.o)
                0x0000000000424228                CreateThread
 .text          0x0000000000424230        0x8 K:/embedded/General Tools/General Tools/mingw64/bin/../lib/gcc/x86_64-w64-mingw32/6.2.0/../../../../x86_64-w64-mingw32/lib/../lib/libkernel32.a(dmmds00160.o)
                0x0000000000424230                CreateMutexA
 .text          0x0000000000424238        0x8 K:/embedded/General Tools/General Tools/mingw64/bin/../lib/gcc/x86_64-w64-mingw32/6.2.0/../../../../x86_64-w64-mingw32/lib/../lib/libkernel32.a(dmmds00134.o)
                0x0000000000424238                CreateEventA
 .text          0x0000000000424240        0x8 K:/embedded/General Tools/General Tools/mingw64/bin/../lib/gcc/x86_64-w64-mingw32/6.2.0/../../../../x86_64-w64-mingw32/lib/../lib/libkernel32.a(dmmds00085.o)
                0x0000000000424240                CloseHandle
 *fill*         0x0000000000424248        0x8 
 .text          0x0000000000424250        0x0 K:/embedded/General Tools/General Tools/mingw64/bin/../lib/gcc/x86_64-w64-mingw32/6.2.0/../../../../x86_64-w64-mingw32/lib/../lib/libkernel32.a(dmmdh.o)
 .text          0x0000000000424250        0x0 K:/embedded/General Tools/General Tools/mingw64/bin/../lib/gcc/x86_64-w64-mingw32/6.2.0/../../../../x86_64-w64-mingw32/lib/../lib/libkernel32.a(dmmdt.o)
 .text          0x0000000000424250        0x0 K:/embedded/General Tools/General Tools/mingw64/bin/../lib/gcc/x86_64-w64-mingw32/6.2.0/crtend.o
 *(SORT(.text$*))
 *(.text.*)
 .text.unlikely
                0x0000000000424250        0x0 K:/embedded/General Tools/General Tools/mingw64/bin/../lib/gcc/x86_64-w64-mingw32/6.2.0/../../../../x86_64-w64-mingw32/lib/../lib/crt2.o
 .text.unlikely
                0x0000000000424250        0x0 K:/embedded/General Tools/General Tools/mingw64/bin/../lib/gcc/x86_64-w64-mingw32/6.2.0/../../../../x86_64-w64-mingw32/lib/../lib/libmingw32.a(lib64_libmingw32_a-atonexit.o)
 .text.unlikely
                0x0000000000424250        0x0 K:/embedded/General Tools/General Tools/mingw64/bin/../lib/gcc/x86_64-w64-mingw32/6.2.0/../../../../x86_64-w64-mingw32/lib/../lib/libmingw32.a(lib64_libmingw32_a-gccmain.o)
 .text.unlikely
                0x0000000000424250        0x0 K:/embedded/General Tools/General Tools/mingw64/bin/../lib/gcc/x86_64-w64-mingw32/6.2.0/../../../../x86_64-w64-mingw32/lib/../lib/libmingw32.a(lib64_libmingw32_a-charmax.o)
 .text.unlikely
                0x0000000000424250        0x0 K:/embedded/General Tools/General Tools/mingw64/bin/../lib/gcc/x86_64-w64-mingw32/6.2.0/../../../../x86_64-w64-mingw32/lib/../lib/libmingw32.a(lib64_libmingw32_a-dllargv.o)
 .text.unlikely
                0x0000000000424250        0x0 K:/embedded/General Tools/General Tools/mingw64/bin/../lib/gcc/x86_64-w64-mingw32/6.2.0/../../../../x86_64-w64-mingw32/lib/../lib/libmingw32.a(lib64_libmingw32_a-gs_support.o)
 .text.unlikely
                0x0000000000424250        0x0 K:/embedded/General Tools/General Tools/mingw64/bin/../lib/gcc/x86_64-w64-mingw32/6.2.0/../../../../x86_64-w64-mingw32/lib/../lib/libmingw32.a(lib64_libmingw32_a-tlssup.o)
 .text.unlikely
                0x0000000000424250        0x0 K:/embedded/General Tools/General Tools/mingw64/bin/../lib/gcc/x86_64-w64-mingw32/6.2.0/../../../../x86_64-w64-mingw32/lib/../lib/libmingw32.a(lib64_libmingw32_a-merr.o)
 .text.unlikely
                0x0000000000424250        0x0 K:/embedded/General Tools/General Tools/mingw64/bin/../lib/gcc/x86_64-w64-mingw32/6.2.0/../../../../x86_64-w64-mingw32/lib/../lib/libmingw32.a(lib64_libmingw32_a-CRT_fp10.o)
 .text.unlikely
                0x0000000000424250        0x0 K:/embedded/General Tools/General Tools/mingw64/bin/../lib/gcc/x86_64-w64-mingw32/6.2.0/../../../../x86_64-w64-mingw32/lib/../lib/libmingw32.a(lib64_libmingw32_a-mingw_helpers.o)
 .text.unlikely
                0x0000000000424250        0x0 K:/embedded/General Tools/General Tools/mingw64/bin/../lib/gcc/x86_64-w64-mingw32/6.2.0/../../../../x86_64-w64-mingw32/lib/../lib/libmingw32.a(lib64_libmingw32_a-pseudo-reloc.o)
 .text.unlikely
                0x0000000000424250        0x0 K:/embedded/General Tools/General Tools/mingw64/bin/../lib/gcc/x86_64-w64-mingw32/6.2.0/../../../../x86_64-w64-mingw32/lib/../lib/libmingw32.a(lib64_libmingw32_a-crt_handler.o)
 .text.unlikely
                0x0000000000424250        0x0 K:/embedded/General Tools/General Tools/mingw64/bin/../lib/gcc/x86_64-w64-mingw32/6.2.0/../../../../x86_64-w64-mingw32/lib/../lib/libmingw32.a(lib64_libmingw32_a-tlsthrd.o)
 .text.unlikely
                0x0000000000424250        0x0 K:/embedded/General Tools/General Tools/mingw64/bin/../lib/gcc/x86_64-w64-mingw32/6.2.0/../../../../x86_64-w64-mingw32/lib/../lib/libmingw32.a(lib64_libmingw32_a-pesect.o)
 .text.unlikely
                0x0000000000424250        0x0 K:/embedded/General Tools/General Tools/mingw64/bin/../lib/gcc/x86_64-w64-mingw32/6.2.0/../../../../x86_64-w64-mingw32/lib/../lib/libmsvcrt.a(lib64_libmsvcrt_a-invalid_parameter_handler.o)
 .text.startup  0x0000000000424250       0x10 K:/embedded/General Tools/General Tools/mingw64/bin/../lib/gcc/x86_64-w64-mingw32/6.2.0/crtend.o
 *(.gnu.linkonce.t.*)
 *(.glue_7t)
 *(.glue_7)
                0x0000000000424260                . = ALIGN (0x8)
                0x0000000000424260                ___CTOR_LIST__ = .
                0x0000000000424260                __CTOR_LIST__ = .
                0x0000000000424260        0x4 LONG 0xffffffffffffffff
                0x0000000000424264        0x4 LONG 0xffffffffffffffff
 *(.ctors)
 *(.ctor)
 *(SORT(.ctors.*))
 .ctors.65535   0x0000000000424268        0x8 K:/embedded/General Tools/General Tools/mingw64/bin/../lib/gcc/x86_64-w64-mingw32/6.2.0/crtend.o
                0x0000000000424270        0x4 LONG 0x0
                0x0000000000424274        0x4 LONG 0x0
                0x0000000000424278                ___DTOR_LIST__ = .
                0x0000000000424278                __DTOR_LIST__ = .
                0x0000000000424278        0x4 LONG 0xffffffffffffffff
                0x000000000042427c        0x4 LONG 0xffffffffffffffff
 *(.dtors)
 *(.dtor)
 *(SORT(.dtors.*))
                0x0000000000424280        0x4 LONG 0x0
                0x0000000000424284        0x4 LONG 0x0
 *(.fini)
 *(.gcc_exc)
                0x0000000000424288                PROVIDE (etext, .)
 *(.gcc_except_table)

.data           0x0000000000425000      0x200
                0x0000000000425000                __data_start__ = .
 *(.data)
 .data          0x0000000000425000       0x10 K:/embedded/General Tools/General Tools/mingw64/bin/../lib/gcc/x86_64-w64-mingw32/6.2.0/../../../../x86_64-w64-mingw32/lib/../lib/crt2.o
                0x0000000000425000                __mingw_winmain_nShowCmd
 .data          0x0000000000425010        0x0 K:/embedded/General Tools/General Tools/mingw64/bin/../lib/gcc/x86_64-w64-mingw32/6.2.0/crtbegin.o
 .data          0x0000000000425010        0x0 DemosModifiedForLowTickRate\recmutex.o
 .data          0x0000000000425010       0x10 FreeRTOS+Trace Recorder\trcKernelPort.o
                0x0000000000425010                TraceQueueClassTable
 .data          0x0000000000425020       0x10 FreeRTOS+Trace Recorder\trcSnapshotRecorder.o
                0x0000000000425024                CurrentFilterMask
                0x0000000000425026                CurrentFilterGroup
 .data          0x0000000000425030        0x0 FreeRTOS+Trace Recorder\trcStreamingRecorder.o
 .data          0x0000000000425030        0x0 FreeRTOS_Source\croutine.o
 .data          0x0000000000425030        0x0 FreeRTOS_Source\event_groups.o
 .data          0x0000000000425030        0x0 FreeRTOS_Source\list.o
 .data          0x0000000000425030       0x10 FreeRTOS_Source\portable\MSVC-MingW\port.o
 .data          0x0000000000425040        0x0 FreeRTOS_Source\portable\MemMang\heap_5.o
 .data          0x0000000000425040        0x0 FreeRTOS_Source\queue.o
 .data          0x0000000000425040        0x0 FreeRTOS_Source\stream_buffer.o
 .data          0x0000000000425040        0x0 FreeRTOS_Source\tasks.o
 .data          0x0000000000425040        0x0 FreeRTOS_Source\timers.o
 .data          0x0000000000425040        0x0 Run-time-stats-utils.o
 .data          0x0000000000425040       0x10 Standard_Demo_Tasks\AbortDelay.o
 .data          0x0000000000425050        0x0 Standard_Demo_Tasks\BlockQ.o
 .data          0x0000000000425050        0x0 Standard_Demo_Tasks\EventGroupsDemo.o
 .data          0x0000000000425050        0x0 Standard_Demo_Tasks\GenQTest.o
 .data          0x0000000000425050        0x0 Standard_Demo_Tasks\IntSemTest.o
 .data          0x0000000000425050       0x10 Standard_Demo_Tasks\MessageBufferAMP.o
                0x0000000000425050                xDemoStatus
 .data          0x0000000000425060       0x10 Standard_Demo_Tasks\MessageBufferDemo.o
 .data          0x0000000000425070        0x0 Standard_Demo_Tasks\PollQ.o
 .data          0x0000000000425070        0x0 Standard_Demo_Tasks\QPeek.o
 .data          0x0000000000425070       0x10 Standard_Demo_Tasks\QueueOverwrite.o
 .data          0x0000000000425080       0x10 Standard_Demo_Tasks\QueueSet.o
 .data          0x0000000000425090       0x10 Standard_Demo_Tasks\QueueSetPolling.o
 .data          0x00000000004250a0        0x0 Standard_Demo_Tasks\StaticAllocation.o
 .data          0x00000000004250a0       0x20 Standard_Demo_Tasks\StreamBufferDemo.o
 .data          0x00000000004250c0       0x20 Standard_Demo_Tasks\StreamBufferInterrupt.o
 .data          0x00000000004250e0       0x10 Standard_Demo_Tasks\TaskNotify.o
 .data          0x00000000004250f0       0x10 Standard_Demo_Tasks\TimerDemo.o
 .data          0x0000000000425100        0x0 Standard_Demo_Tasks\blocktim.o
 .data          0x0000000000425100        0x0 Standard_Demo_Tasks\countsem.o
 .data          0x0000000000425100       0x10 Standard_Demo_Tasks\death.o
 .data          0x0000000000425110        0x0 Standard_Demo_Tasks\dynamic.o
 .data          0x0000000000425110        0x0 Standard_Demo_Tasks\flop.o
 .data          0x0000000000425110        0x0 Standard_Demo_Tasks\integer.o
 .data          0x0000000000425110        0x0 Standard_Demo_Tasks\semtest.o
 .data          0x0000000000425110        0x0 code_coverage_additions.o
 .data          0x0000000000425110       0x10 main.o
 .data          0x0000000000425120        0x0 main_blinky.o
 .data          0x0000000000425120       0x10 main_full.o
 .data          0x0000000000425130        0x0 main_task1.o
 .data          0x0000000000425130        0x0 main_task2.o
 .data          0x0000000000425130        0x0 main_task3.o
 .data          0x0000000000425130        0x0 main_task4.o
 .data          0x0000000000425130        0x0 K:/embedded/General Tools/General Tools/mingw64/bin/../lib/gcc/x86_64-w64-mingw32/6.2.0/../../../../x86_64-w64-mingw32/lib/../lib/libwinmm.a(dmces00151.o)
 .data          0x0000000000425130        0x0 K:/embedded/General Tools/General Tools/mingw64/bin/../lib/gcc/x86_64-w64-mingw32/6.2.0/../../../../x86_64-w64-mingw32/lib/../lib/libwinmm.a(dmces00150.o)
 .data          0x0000000000425130        0x0 K:/embedded/General Tools/General Tools/mingw64/bin/../lib/gcc/x86_64-w64-mingw32/6.2.0/../../../../x86_64-w64-mingw32/lib/../lib/libwinmm.a(dmces00149.o)
 .data          0x0000000000425130        0x0 K:/embedded/General Tools/General Tools/mingw64/bin/../lib/gcc/x86_64-w64-mingw32/6.2.0/../../../../x86_64-w64-mingw32/lib/../lib/libwinmm.a(dmceh.o)
 .data          0x0000000000425130        0x0 K:/embedded/General Tools/General Tools/mingw64/bin/../lib/gcc/x86_64-w64-mingw32/6.2.0/../../../../x86_64-w64-mingw32/lib/../lib/libwinmm.a(dmcet.o)
 .data          0x0000000000425130        0x0 K:/embedded/General Tools/General Tools/mingw64/bin/../lib/gcc/x86_64-w64-mingw32/6.2.0/../../../../x86_64-w64-mingw32/lib/../lib/libmingw32.a(lib64_libmingw32_a-atonexit.o)
 .data          0x0000000000425130       0x10 K:/embedded/General Tools/General Tools/mingw64/bin/../lib/gcc/x86_64-w64-mingw32/6.2.0/../../../../x86_64-w64-mingw32/lib/../lib/libmingw32.a(lib64_libmingw32_a-gccmain.o)
 .data          0x0000000000425140       0x10 K:/embedded/General Tools/General Tools/mingw64/bin/../lib/gcc/x86_64-w64-mingw32/6.2.0/../../../../x86_64-w64-mingw32/lib/../lib/libmingw32.a(lib64_libmingw32_a-natstart.o)
                0x0000000000425140                __native_vcclrit_reason
                0x0000000000425144                __native_dllmain_reason
 .data          0x0000000000425150       0x10 K:/embedded/General Tools/General Tools/mingw64/bin/../lib/gcc/x86_64-w64-mingw32/6.2.0/../../../../x86_64-w64-mingw32/lib/../lib/libmingw32.a(lib64_libmingw32_a-wildcard.o)
                0x0000000000425150                _dowildcard
 .data          0x0000000000425160       0x10 K:/embedded/General Tools/General Tools/mingw64/bin/../lib/gcc/x86_64-w64-mingw32/6.2.0/../../../../x86_64-w64-mingw32/lib/../lib/libmingw32.a(lib64_libmingw32_a-charmax.o)
                0x0000000000425160                _charmax
 .data          0x0000000000425170        0x0 K:/embedded/General Tools/General Tools/mingw64/bin/../lib/gcc/x86_64-w64-mingw32/6.2.0/../../../../x86_64-w64-mingw32/lib/../lib/libmingw32.a(lib64_libmingw32_a-dllargv.o)
 .data          0x0000000000425170        0x0 K:/embedded/General Tools/General Tools/mingw64/bin/../lib/gcc/x86_64-w64-mingw32/6.2.0/../../../../x86_64-w64-mingw32/lib/../lib/libmingw32.a(lib64_libmingw32_a-gs_support.o)
 .data          0x0000000000425170        0x0 K:/embedded/General Tools/General Tools/mingw64/bin/../lib/gcc/x86_64-w64-mingw32/6.2.0/../../../../x86_64-w64-mingw32/lib/../lib/libmingw32.a(lib64_libmingw32_a-_newmode.o)
 .data          0x0000000000425170        0x0 K:/embedded/General Tools/General Tools/mingw64/bin/../lib/gcc/x86_64-w64-mingw32/6.2.0/../../../../x86_64-w64-mingw32/lib/../lib/libmingw32.a(lib64_libmingw32_a-tlssup.o)
 .data          0x0000000000425170        0x0 K:/embedded/General Tools/General Tools/mingw64/bin/../lib/gcc/x86_64-w64-mingw32/6.2.0/../../../../x86_64-w64-mingw32/lib/../lib/libmingw32.a(lib64_libmingw32_a-cinitexe.o)
 .data          0x0000000000425170        0x0 K:/embedded/General Tools/General Tools/mingw64/bin/../lib/gcc/x86_64-w64-mingw32/6.2.0/../../../../x86_64-w64-mingw32/lib/../lib/libmingw32.a(lib64_libmingw32_a-merr.o)
 .data          0x0000000000425170        0x0 K:/embedded/General Tools/General Tools/mingw64/bin/../lib/gcc/x86_64-w64-mingw32/6.2.0/../../../../x86_64-w64-mingw32/lib/../lib/libmingw32.a(lib64_libmingw32_a-CRT_fp10.o)
 .data          0x0000000000425170        0x0 K:/embedded/General Tools/General Tools/mingw64/bin/../lib/gcc/x86_64-w64-mingw32/6.2.0/../../../../x86_64-w64-mingw32/lib/../lib/libmingw32.a(lib64_libmingw32_a-mingw_helpers.o)
 .data          0x0000000000425170        0x0 K:/embedded/General Tools/General Tools/mingw64/bin/../lib/gcc/x86_64-w64-mingw32/6.2.0/../../../../x86_64-w64-mingw32/lib/../lib/libmingw32.a(lib64_libmingw32_a-pseudo-reloc.o)
 .data          0x0000000000425170        0x0 K:/embedded/General Tools/General Tools/mingw64/bin/../lib/gcc/x86_64-w64-mingw32/6.2.0/../../../../x86_64-w64-mingw32/lib/../lib/libmingw32.a(lib64_libmingw32_a-xtxtmode.o)
 .data          0x0000000000425170        0x0 K:/embedded/General Tools/General Tools/mingw64/bin/../lib/gcc/x86_64-w64-mingw32/6.2.0/../../../../x86_64-w64-mingw32/lib/../lib/libmingw32.a(lib64_libmingw32_a-crt_handler.o)
 .data          0x0000000000425170        0x0 K:/embedded/General Tools/General Tools/mingw64/bin/../lib/gcc/x86_64-w64-mingw32/6.2.0/../../../../x86_64-w64-mingw32/lib/../lib/libmingw32.a(lib64_libmingw32_a-tlsthrd.o)
 .data          0x0000000000425170       0x10 K:/embedded/General Tools/General Tools/mingw64/bin/../lib/gcc/x86_64-w64-mingw32/6.2.0/../../../../x86_64-w64-mingw32/lib/../lib/libmingw32.a(lib64_libmingw32_a-tlsmcrt.o)
                0x0000000000425170                _CRT_MT
 .data          0x0000000000425180        0x0 K:/embedded/General Tools/General Tools/mingw64/bin/../lib/gcc/x86_64-w64-mingw32/6.2.0/../../../../x86_64-w64-mingw32/lib/../lib/libmingw32.a(lib64_libmingw32_a-pseudo-reloc-list.o)
 .data          0x0000000000425180        0x0 K:/embedded/General Tools/General Tools/mingw64/bin/../lib/gcc/x86_64-w64-mingw32/6.2.0/../../../../x86_64-w64-mingw32/lib/../lib/libmingw32.a(lib64_libmingw32_a-pesect.o)
 .data          0x0000000000425180        0x0 K:/embedded/General Tools/General Tools/mingw64/bin/../lib/gcc/x86_64-w64-mingw32/6.2.0/libgcc.a(_chkstk_ms.o)
 .data          0x0000000000425180        0x0 K:/embedded/General Tools/General Tools/mingw64/bin/../lib/gcc/x86_64-w64-mingw32/6.2.0/libgcc.a(_ctors.o)
 .data          0x0000000000425180       0x10 K:/embedded/General Tools/General Tools/mingw64/bin/../lib/gcc/x86_64-w64-mingw32/6.2.0/../../../../x86_64-w64-mingw32/lib/../lib/libmingwex.a(lib64_libmingwex_a-mingw_matherr.o)
                0x0000000000425180                _MINGW_INSTALL_DEBUG_MATHERR
 .data          0x0000000000425190        0x0 K:/embedded/General Tools/General Tools/mingw64/bin/../lib/gcc/x86_64-w64-mingw32/6.2.0/../../../../x86_64-w64-mingw32/lib/../lib/libmsvcrt.a(dekes01240.o)
 .data          0x0000000000425190        0x0 K:/embedded/General Tools/General Tools/mingw64/bin/../lib/gcc/x86_64-w64-mingw32/6.2.0/../../../../x86_64-w64-mingw32/lib/../lib/libmsvcrt.a(dekes01208.o)
 .data          0x0000000000425190        0x0 K:/embedded/General Tools/General Tools/mingw64/bin/../lib/gcc/x86_64-w64-mingw32/6.2.0/../../../../x86_64-w64-mingw32/lib/../lib/libmsvcrt.a(dekes01205.o)
 .data          0x0000000000425190        0x0 K:/embedded/General Tools/General Tools/mingw64/bin/../lib/gcc/x86_64-w64-mingw32/6.2.0/../../../../x86_64-w64-mingw32/lib/../lib/libmsvcrt.a(dekes01198.o)
 .data          0x0000000000425190        0x0 K:/embedded/General Tools/General Tools/mingw64/bin/../lib/gcc/x86_64-w64-mingw32/6.2.0/../../../../x86_64-w64-mingw32/lib/../lib/libmsvcrt.a(dekes01189.o)
 .data          0x0000000000425190        0x0 K:/embedded/General Tools/General Tools/mingw64/bin/../lib/gcc/x86_64-w64-mingw32/6.2.0/../../../../x86_64-w64-mingw32/lib/../lib/libmsvcrt.a(dekes01184.o)
 .data          0x0000000000425190        0x0 K:/embedded/General Tools/General Tools/mingw64/bin/../lib/gcc/x86_64-w64-mingw32/6.2.0/../../../../x86_64-w64-mingw32/lib/../lib/libmsvcrt.a(dekes01183.o)
 .data          0x0000000000425190        0x0 K:/embedded/General Tools/General Tools/mingw64/bin/../lib/gcc/x86_64-w64-mingw32/6.2.0/../../../../x86_64-w64-mingw32/lib/../lib/libmsvcrt.a(dekes01173.o)
 .data          0x0000000000425190        0x0 K:/embedded/General Tools/General Tools/mingw64/bin/../lib/gcc/x86_64-w64-mingw32/6.2.0/../../../../x86_64-w64-mingw32/lib/../lib/libmsvcrt.a(dekes01167.o)
 .data          0x0000000000425190        0x0 K:/embedded/General Tools/General Tools/mingw64/bin/../lib/gcc/x86_64-w64-mingw32/6.2.0/../../../../x86_64-w64-mingw32/lib/../lib/libmsvcrt.a(dekes01166.o)
 .data          0x0000000000425190        0x0 K:/embedded/General Tools/General Tools/mingw64/bin/../lib/gcc/x86_64-w64-mingw32/6.2.0/../../../../x86_64-w64-mingw32/lib/../lib/libmsvcrt.a(dekes01163.o)
 .data          0x0000000000425190        0x0 K:/embedded/General Tools/General Tools/mingw64/bin/../lib/gcc/x86_64-w64-mingw32/6.2.0/../../../../x86_64-w64-mingw32/lib/../lib/libmsvcrt.a(dekes01156.o)
 .data          0x0000000000425190        0x0 K:/embedded/General Tools/General Tools/mingw64/bin/../lib/gcc/x86_64-w64-mingw32/6.2.0/../../../../x86_64-w64-mingw32/lib/../lib/libmsvcrt.a(dekes01154.o)
 .data          0x0000000000425190        0x0 K:/embedded/General Tools/General Tools/mingw64/bin/../lib/gcc/x86_64-w64-mingw32/6.2.0/../../../../x86_64-w64-mingw32/lib/../lib/libmsvcrt.a(dekes01153.o)
 .data          0x0000000000425190        0x0 K:/embedded/General Tools/General Tools/mingw64/bin/../lib/gcc/x86_64-w64-mingw32/6.2.0/../../../../x86_64-w64-mingw32/lib/../lib/libmsvcrt.a(dekes01146.o)
 .data          0x0000000000425190        0x0 K:/embedded/General Tools/General Tools/mingw64/bin/../lib/gcc/x86_64-w64-mingw32/6.2.0/../../../../x86_64-w64-mingw32/lib/../lib/libmsvcrt.a(dekes01099.o)
 .data          0x0000000000425190        0x0 K:/embedded/General Tools/General Tools/mingw64/bin/../lib/gcc/x86_64-w64-mingw32/6.2.0/../../../../x86_64-w64-mingw32/lib/../lib/libmsvcrt.a(dekes01087.o)
 .data          0x0000000000425190        0x0 K:/embedded/General Tools/General Tools/mingw64/bin/../lib/gcc/x86_64-w64-mingw32/6.2.0/../../../../x86_64-w64-mingw32/lib/../lib/libmsvcrt.a(dekes01080.o)
 .data          0x0000000000425190        0x0 K:/embedded/General Tools/General Tools/mingw64/bin/../lib/gcc/x86_64-w64-mingw32/6.2.0/../../../../x86_64-w64-mingw32/lib/../lib/libmsvcrt.a(dekes01078.o)
 .data          0x0000000000425190        0x0 K:/embedded/General Tools/General Tools/mingw64/bin/../lib/gcc/x86_64-w64-mingw32/6.2.0/../../../../x86_64-w64-mingw32/lib/../lib/libmsvcrt.a(dekes01068.o)
 .data          0x0000000000425190        0x0 K:/embedded/General Tools/General Tools/mingw64/bin/../lib/gcc/x86_64-w64-mingw32/6.2.0/../../../../x86_64-w64-mingw32/lib/../lib/libmsvcrt.a(dekes01065.o)
 .data          0x0000000000425190        0x0 K:/embedded/General Tools/General Tools/mingw64/bin/../lib/gcc/x86_64-w64-mingw32/6.2.0/../../../../x86_64-w64-mingw32/lib/../lib/libmsvcrt.a(dekes01061.o)
 .data          0x0000000000425190        0x0 K:/embedded/General Tools/General Tools/mingw64/bin/../lib/gcc/x86_64-w64-mingw32/6.2.0/../../../../x86_64-w64-mingw32/lib/../lib/libmsvcrt.a(dekes01048.o)
 .data          0x0000000000425190        0x0 K:/embedded/General Tools/General Tools/mingw64/bin/../lib/gcc/x86_64-w64-mingw32/6.2.0/../../../../x86_64-w64-mingw32/lib/../lib/libmsvcrt.a(dekes01028.o)
 .data          0x0000000000425190        0x0 K:/embedded/General Tools/General Tools/mingw64/bin/../lib/gcc/x86_64-w64-mingw32/6.2.0/../../../../x86_64-w64-mingw32/lib/../lib/libmsvcrt.a(dekes00820.o)
 .data          0x0000000000425190        0x0 K:/embedded/General Tools/General Tools/mingw64/bin/../lib/gcc/x86_64-w64-mingw32/6.2.0/../../../../x86_64-w64-mingw32/lib/../lib/libmsvcrt.a(dekes00611.o)
 .data          0x0000000000425190        0x0 K:/embedded/General Tools/General Tools/mingw64/bin/../lib/gcc/x86_64-w64-mingw32/6.2.0/../../../../x86_64-w64-mingw32/lib/../lib/libmsvcrt.a(dekes00438.o)
 .data          0x0000000000425190        0x0 K:/embedded/General Tools/General Tools/mingw64/bin/../lib/gcc/x86_64-w64-mingw32/6.2.0/../../../../x86_64-w64-mingw32/lib/../lib/libmsvcrt.a(dekes00330.o)
 .data          0x0000000000425190        0x0 K:/embedded/General Tools/General Tools/mingw64/bin/../lib/gcc/x86_64-w64-mingw32/6.2.0/../../../../x86_64-w64-mingw32/lib/../lib/libmsvcrt.a(dekes00252.o)
 .data          0x0000000000425190        0x0 K:/embedded/General Tools/General Tools/mingw64/bin/../lib/gcc/x86_64-w64-mingw32/6.2.0/../../../../x86_64-w64-mingw32/lib/../lib/libmsvcrt.a(dekes00141.o)
 .data          0x0000000000425190        0x0 K:/embedded/General Tools/General Tools/mingw64/bin/../lib/gcc/x86_64-w64-mingw32/6.2.0/../../../../x86_64-w64-mingw32/lib/../lib/libmsvcrt.a(dekes00123.o)
 .data          0x0000000000425190        0x0 K:/embedded/General Tools/General Tools/mingw64/bin/../lib/gcc/x86_64-w64-mingw32/6.2.0/../../../../x86_64-w64-mingw32/lib/../lib/libmsvcrt.a(dekes00116.o)
 .data          0x0000000000425190        0x0 K:/embedded/General Tools/General Tools/mingw64/bin/../lib/gcc/x86_64-w64-mingw32/6.2.0/../../../../x86_64-w64-mingw32/lib/../lib/libmsvcrt.a(dekes00099.o)
 .data          0x0000000000425190        0x0 K:/embedded/General Tools/General Tools/mingw64/bin/../lib/gcc/x86_64-w64-mingw32/6.2.0/../../../../x86_64-w64-mingw32/lib/../lib/libmsvcrt.a(dekes00097.o)
 .data          0x0000000000425190        0x0 K:/embedded/General Tools/General Tools/mingw64/bin/../lib/gcc/x86_64-w64-mingw32/6.2.0/../../../../x86_64-w64-mingw32/lib/../lib/libmsvcrt.a(dekes00091.o)
 .data          0x0000000000425190        0x0 K:/embedded/General Tools/General Tools/mingw64/bin/../lib/gcc/x86_64-w64-mingw32/6.2.0/../../../../x86_64-w64-mingw32/lib/../lib/libmsvcrt.a(dekes00083.o)
 .data          0x0000000000425190        0x0 K:/embedded/General Tools/General Tools/mingw64/bin/../lib/gcc/x86_64-w64-mingw32/6.2.0/../../../../x86_64-w64-mingw32/lib/../lib/libmsvcrt.a(dekes00082.o)
 .data          0x0000000000425190        0x0 K:/embedded/General Tools/General Tools/mingw64/bin/../lib/gcc/x86_64-w64-mingw32/6.2.0/../../../../x86_64-w64-mingw32/lib/../lib/libmsvcrt.a(dekes00081.o)
 .data          0x0000000000425190        0x0 K:/embedded/General Tools/General Tools/mingw64/bin/../lib/gcc/x86_64-w64-mingw32/6.2.0/../../../../x86_64-w64-mingw32/lib/../lib/libmsvcrt.a(dekes00078.o)
 .data          0x0000000000425190        0x0 K:/embedded/General Tools/General Tools/mingw64/bin/../lib/gcc/x86_64-w64-mingw32/6.2.0/../../../../x86_64-w64-mingw32/lib/../lib/libmsvcrt.a(dekes00055.o)
 .data          0x0000000000425190       0x10 K:/embedded/General Tools/General Tools/mingw64/bin/../lib/gcc/x86_64-w64-mingw32/6.2.0/../../../../x86_64-w64-mingw32/lib/../lib/libmsvcrt.a(lib64_libmsvcrt_a-invalid_parameter_handler.o)
                0x0000000000425190                __imp__get_invalid_parameter_handler
                0x0000000000425198                __imp__set_invalid_parameter_handler
 .data          0x00000000004251a0        0x0 K:/embedded/General Tools/General Tools/mingw64/bin/../lib/gcc/x86_64-w64-mingw32/6.2.0/../../../../x86_64-w64-mingw32/lib/../lib/libmsvcrt.a(dekeh.o)
 .data          0x00000000004251a0        0x0 K:/embedded/General Tools/General Tools/mingw64/bin/../lib/gcc/x86_64-w64-mingw32/6.2.0/../../../../x86_64-w64-mingw32/lib/../lib/libmsvcrt.a(deket.o)
 .data          0x00000000004251a0        0x0 K:/embedded/General Tools/General Tools/mingw64/bin/../lib/gcc/x86_64-w64-mingw32/6.2.0/../../../../x86_64-w64-mingw32/lib/../lib/libkernel32.a(dmmds01274.o)
 .data          0x00000000004251a0        0x0 K:/embedded/General Tools/General Tools/mingw64/bin/../lib/gcc/x86_64-w64-mingw32/6.2.0/../../../../x86_64-w64-mingw32/lib/../lib/libkernel32.a(dmmds01272.o)
 .data          0x00000000004251a0        0x0 K:/embedded/General Tools/General Tools/mingw64/bin/../lib/gcc/x86_64-w64-mingw32/6.2.0/../../../../x86_64-w64-mingw32/lib/../lib/libkernel32.a(dmmds01266.o)
 .data          0x00000000004251a0        0x0 K:/embedded/General Tools/General Tools/mingw64/bin/../lib/gcc/x86_64-w64-mingw32/6.2.0/../../../../x86_64-w64-mingw32/lib/../lib/libkernel32.a(dmmds01264.o)
 .data          0x00000000004251a0        0x0 K:/embedded/General Tools/General Tools/mingw64/bin/../lib/gcc/x86_64-w64-mingw32/6.2.0/../../../../x86_64-w64-mingw32/lib/../lib/libkernel32.a(dmmds01234.o)
 .data          0x00000000004251a0        0x0 K:/embedded/General Tools/General Tools/mingw64/bin/../lib/gcc/x86_64-w64-mingw32/6.2.0/../../../../x86_64-w64-mingw32/lib/../lib/libkernel32.a(dmmds01221.o)
 .data          0x00000000004251a0        0x0 K:/embedded/General Tools/General Tools/mingw64/bin/../lib/gcc/x86_64-w64-mingw32/6.2.0/../../../../x86_64-w64-mingw32/lib/../lib/libkernel32.a(dmmds01215.o)
 .data          0x00000000004251a0        0x0 K:/embedded/General Tools/General Tools/mingw64/bin/../lib/gcc/x86_64-w64-mingw32/6.2.0/../../../../x86_64-w64-mingw32/lib/../lib/libkernel32.a(dmmds01214.o)
 .data          0x00000000004251a0        0x0 K:/embedded/General Tools/General Tools/mingw64/bin/../lib/gcc/x86_64-w64-mingw32/6.2.0/../../../../x86_64-w64-mingw32/lib/../lib/libkernel32.a(dmmds01208.o)
 .data          0x00000000004251a0        0x0 K:/embedded/General Tools/General Tools/mingw64/bin/../lib/gcc/x86_64-w64-mingw32/6.2.0/../../../../x86_64-w64-mingw32/lib/../lib/libkernel32.a(dmmds01200.o)
 .data          0x00000000004251a0        0x0 K:/embedded/General Tools/General Tools/mingw64/bin/../lib/gcc/x86_64-w64-mingw32/6.2.0/../../../../x86_64-w64-mingw32/lib/../lib/libkernel32.a(dmmds01187.o)
 .data          0x00000000004251a0        0x0 K:/embedded/General Tools/General Tools/mingw64/bin/../lib/gcc/x86_64-w64-mingw32/6.2.0/../../../../x86_64-w64-mingw32/lib/../lib/libkernel32.a(dmmds01175.o)
 .data          0x00000000004251a0        0x0 K:/embedded/General Tools/General Tools/mingw64/bin/../lib/gcc/x86_64-w64-mingw32/6.2.0/../../../../x86_64-w64-mingw32/lib/../lib/libkernel32.a(dmmds01174.o)
 .data          0x00000000004251a0        0x0 K:/embedded/General Tools/General Tools/mingw64/bin/../lib/gcc/x86_64-w64-mingw32/6.2.0/../../../../x86_64-w64-mingw32/lib/../lib/libkernel32.a(dmmds01165.o)
 .data          0x00000000004251a0        0x0 K:/embedded/General Tools/General Tools/mingw64/bin/../lib/gcc/x86_64-w64-mingw32/6.2.0/../../../../x86_64-w64-mingw32/lib/../lib/libkernel32.a(dmmds01146.o)
 .data          0x00000000004251a0        0x0 K:/embedded/General Tools/General Tools/mingw64/bin/../lib/gcc/x86_64-w64-mingw32/6.2.0/../../../../x86_64-w64-mingw32/lib/../lib/libkernel32.a(dmmds01111.o)
 .data          0x00000000004251a0        0x0 K:/embedded/General Tools/General Tools/mingw64/bin/../lib/gcc/x86_64-w64-mingw32/6.2.0/../../../../x86_64-w64-mingw32/lib/../lib/libkernel32.a(dmmds01067.o)
 .data          0x00000000004251a0        0x0 K:/embedded/General Tools/General Tools/mingw64/bin/../lib/gcc/x86_64-w64-mingw32/6.2.0/../../../../x86_64-w64-mingw32/lib/../lib/libkernel32.a(dmmds01044.o)
 .data          0x00000000004251a0        0x0 K:/embedded/General Tools/General Tools/mingw64/bin/../lib/gcc/x86_64-w64-mingw32/6.2.0/../../../../x86_64-w64-mingw32/lib/../lib/libkernel32.a(dmmds01037.o)
 .data          0x00000000004251a0        0x0 K:/embedded/General Tools/General Tools/mingw64/bin/../lib/gcc/x86_64-w64-mingw32/6.2.0/../../../../x86_64-w64-mingw32/lib/../lib/libkernel32.a(dmmds01030.o)
 .data          0x00000000004251a0        0x0 K:/embedded/General Tools/General Tools/mingw64/bin/../lib/gcc/x86_64-w64-mingw32/6.2.0/../../../../x86_64-w64-mingw32/lib/../lib/libkernel32.a(dmmds01029.o)
 .data          0x00000000004251a0        0x0 K:/embedded/General Tools/General Tools/mingw64/bin/../lib/gcc/x86_64-w64-mingw32/6.2.0/../../../../x86_64-w64-mingw32/lib/../lib/libkernel32.a(dmmds01028.o)
 .data          0x00000000004251a0        0x0 K:/embedded/General Tools/General Tools/mingw64/bin/../lib/gcc/x86_64-w64-mingw32/6.2.0/../../../../x86_64-w64-mingw32/lib/../lib/libkernel32.a(dmmds01024.o)
 .data          0x00000000004251a0        0x0 K:/embedded/General Tools/General Tools/mingw64/bin/../lib/gcc/x86_64-w64-mingw32/6.2.0/../../../../x86_64-w64-mingw32/lib/../lib/libkernel32.a(dmmds01003.o)
 .data          0x00000000004251a0        0x0 K:/embedded/General Tools/General Tools/mingw64/bin/../lib/gcc/x86_64-w64-mingw32/6.2.0/../../../../x86_64-w64-mingw32/lib/../lib/libkernel32.a(dmmds00959.o)
 .data          0x00000000004251a0        0x0 K:/embedded/General Tools/General Tools/mingw64/bin/../lib/gcc/x86_64-w64-mingw32/6.2.0/../../../../x86_64-w64-mingw32/lib/../lib/libkernel32.a(dmmds00958.o)
 .data          0x00000000004251a0        0x0 K:/embedded/General Tools/General Tools/mingw64/bin/../lib/gcc/x86_64-w64-mingw32/6.2.0/../../../../x86_64-w64-mingw32/lib/../lib/libkernel32.a(dmmds00844.o)
 .data          0x00000000004251a0        0x0 K:/embedded/General Tools/General Tools/mingw64/bin/../lib/gcc/x86_64-w64-mingw32/6.2.0/../../../../x86_64-w64-mingw32/lib/../lib/libkernel32.a(dmmds00762.o)
 .data          0x00000000004251a0        0x0 K:/embedded/General Tools/General Tools/mingw64/bin/../lib/gcc/x86_64-w64-mingw32/6.2.0/../../../../x86_64-w64-mingw32/lib/../lib/libkernel32.a(dmmds00678.o)
 .data          0x00000000004251a0        0x0 K:/embedded/General Tools/General Tools/mingw64/bin/../lib/gcc/x86_64-w64-mingw32/6.2.0/../../../../x86_64-w64-mingw32/lib/../lib/libkernel32.a(dmmds00665.o)
 .data          0x00000000004251a0        0x0 K:/embedded/General Tools/General Tools/mingw64/bin/../lib/gcc/x86_64-w64-mingw32/6.2.0/../../../../x86_64-w64-mingw32/lib/../lib/libkernel32.a(dmmds00651.o)
 .data          0x00000000004251a0        0x0 K:/embedded/General Tools/General Tools/mingw64/bin/../lib/gcc/x86_64-w64-mingw32/6.2.0/../../../../x86_64-w64-mingw32/lib/../lib/libkernel32.a(dmmds00645.o)
 .data          0x00000000004251a0        0x0 K:/embedded/General Tools/General Tools/mingw64/bin/../lib/gcc/x86_64-w64-mingw32/6.2.0/../../../../x86_64-w64-mingw32/lib/../lib/libkernel32.a(dmmds00628.o)
 .data          0x00000000004251a0        0x0 K:/embedded/General Tools/General Tools/mingw64/bin/../lib/gcc/x86_64-w64-mingw32/6.2.0/../../../../x86_64-w64-mingw32/lib/../lib/libkernel32.a(dmmds00599.o)
 .data          0x00000000004251a0        0x0 K:/embedded/General Tools/General Tools/mingw64/bin/../lib/gcc/x86_64-w64-mingw32/6.2.0/../../../../x86_64-w64-mingw32/lib/../lib/libkernel32.a(dmmds00549.o)
 .data          0x00000000004251a0        0x0 K:/embedded/General Tools/General Tools/mingw64/bin/../lib/gcc/x86_64-w64-mingw32/6.2.0/../../../../x86_64-w64-mingw32/lib/../lib/libkernel32.a(dmmds00529.o)
 .data          0x00000000004251a0        0x0 K:/embedded/General Tools/General Tools/mingw64/bin/../lib/gcc/x86_64-w64-mingw32/6.2.0/../../../../x86_64-w64-mingw32/lib/../lib/libkernel32.a(dmmds00467.o)
 .data          0x00000000004251a0        0x0 K:/embedded/General Tools/General Tools/mingw64/bin/../lib/gcc/x86_64-w64-mingw32/6.2.0/../../../../x86_64-w64-mingw32/lib/../lib/libkernel32.a(dmmds00466.o)
 .data          0x00000000004251a0        0x0 K:/embedded/General Tools/General Tools/mingw64/bin/../lib/gcc/x86_64-w64-mingw32/6.2.0/../../../../x86_64-w64-mingw32/lib/../lib/libkernel32.a(dmmds00463.o)
 .data          0x00000000004251a0        0x0 K:/embedded/General Tools/General Tools/mingw64/bin/../lib/gcc/x86_64-w64-mingw32/6.2.0/../../../../x86_64-w64-mingw32/lib/../lib/libkernel32.a(dmmds00462.o)
 .data          0x00000000004251a0        0x0 K:/embedded/General Tools/General Tools/mingw64/bin/../lib/gcc/x86_64-w64-mingw32/6.2.0/../../../../x86_64-w64-mingw32/lib/../lib/libkernel32.a(dmmds00295.o)
 .data          0x00000000004251a0        0x0 K:/embedded/General Tools/General Tools/mingw64/bin/../lib/gcc/x86_64-w64-mingw32/6.2.0/../../../../x86_64-w64-mingw32/lib/../lib/libkernel32.a(dmmds00249.o)
 .data          0x00000000004251a0        0x0 K:/embedded/General Tools/General Tools/mingw64/bin/../lib/gcc/x86_64-w64-mingw32/6.2.0/../../../../x86_64-w64-mingw32/lib/../lib/libkernel32.a(dmmds00216.o)
 .data          0x00000000004251a0        0x0 K:/embedded/General Tools/General Tools/mingw64/bin/../lib/gcc/x86_64-w64-mingw32/6.2.0/../../../../x86_64-w64-mingw32/lib/../lib/libkernel32.a(dmmds00186.o)
 .data          0x00000000004251a0        0x0 K:/embedded/General Tools/General Tools/mingw64/bin/../lib/gcc/x86_64-w64-mingw32/6.2.0/../../../../x86_64-w64-mingw32/lib/../lib/libkernel32.a(dmmds00160.o)
 .data          0x00000000004251a0        0x0 K:/embedded/General Tools/General Tools/mingw64/bin/../lib/gcc/x86_64-w64-mingw32/6.2.0/../../../../x86_64-w64-mingw32/lib/../lib/libkernel32.a(dmmds00134.o)
 .data          0x00000000004251a0        0x0 K:/embedded/General Tools/General Tools/mingw64/bin/../lib/gcc/x86_64-w64-mingw32/6.2.0/../../../../x86_64-w64-mingw32/lib/../lib/libkernel32.a(dmmds00085.o)
 .data          0x00000000004251a0        0x0 K:/embedded/General Tools/General Tools/mingw64/bin/../lib/gcc/x86_64-w64-mingw32/6.2.0/../../../../x86_64-w64-mingw32/lib/../lib/libkernel32.a(dmmdh.o)
 .data          0x00000000004251a0        0x0 K:/embedded/General Tools/General Tools/mingw64/bin/../lib/gcc/x86_64-w64-mingw32/6.2.0/../../../../x86_64-w64-mingw32/lib/../lib/libkernel32.a(dmmdt.o)
 .data          0x00000000004251a0        0x0 K:/embedded/General Tools/General Tools/mingw64/bin/../lib/gcc/x86_64-w64-mingw32/6.2.0/crtend.o
 *(.data2)
 *(SORT(.data$*))
 .data$__security_cookie
                0x00000000004251a0       0x10 K:/embedded/General Tools/General Tools/mingw64/bin/../lib/gcc/x86_64-w64-mingw32/6.2.0/../../../../x86_64-w64-mingw32/lib/../lib/libmingw32.a(lib64_libmingw32_a-gs_support.o)
                0x00000000004251a0                __security_cookie
 .data$__security_cookie_complement
                0x00000000004251b0       0x10 K:/embedded/General Tools/General Tools/mingw64/bin/../lib/gcc/x86_64-w64-mingw32/6.2.0/../../../../x86_64-w64-mingw32/lib/../lib/libmingw32.a(lib64_libmingw32_a-gs_support.o)
                0x00000000004251b0                __security_cookie_complement
 *(.jcr)
 .jcr           0x00000000004251c0        0x0 K:/embedded/General Tools/General Tools/mingw64/bin/../lib/gcc/x86_64-w64-mingw32/6.2.0/crtbegin.o
 .jcr           0x00000000004251c0        0x8 K:/embedded/General Tools/General Tools/mingw64/bin/../lib/gcc/x86_64-w64-mingw32/6.2.0/crtend.o
                0x00000000004251c8                __data_end__ = .
 *(.data_cygwin_nocopy)

.rdata          0x0000000000426000     0x3e00
 *(.rdata)
 .rdata         0x0000000000426000       0x30 K:/embedded/General Tools/General Tools/mingw64/bin/../lib/gcc/x86_64-w64-mingw32/6.2.0/crtbegin.o
 .rdata         0x0000000000426030       0x30 DemosModifiedForLowTickRate\recmutex.o
 .rdata         0x0000000000426060      0x340 FreeRTOS+Trace Recorder\trcKernelPort.o
 .rdata         0x00000000004263a0     0x11f0 FreeRTOS+Trace Recorder\trcSnapshotRecorder.o
 .rdata         0x0000000000427590       0x20 FreeRTOS_Source\event_groups.o
 .rdata         0x00000000004275b0       0xa0 FreeRTOS_Source\portable\MSVC-MingW\port.o
 .rdata         0x0000000000427650       0x40 FreeRTOS_Source\portable\MemMang\heap_5.o
 .rdata         0x0000000000427690       0x20 FreeRTOS_Source\queue.o
 .rdata         0x00000000004276b0       0x20 FreeRTOS_Source\stream_buffer.o
 .rdata         0x00000000004276d0       0x50 FreeRTOS_Source\tasks.o
 .rdata         0x0000000000427720       0x60 FreeRTOS_Source\timers.o
 .rdata         0x0000000000427780       0x70 Standard_Demo_Tasks\AbortDelay.o
                0x0000000000427790                xMaxBlockTime
                0x0000000000427794                xHalfMaxBlockTime
                0x0000000000427798                xAllowableMargin
 .rdata         0x00000000004277f0       0x30 Standard_Demo_Tasks\BlockQ.o
 .rdata         0x0000000000427820       0x40 Standard_Demo_Tasks\EventGroupsDemo.o
 .rdata         0x0000000000427860       0x60 Standard_Demo_Tasks\GenQTest.o
 .rdata         0x00000000004278c0       0x40 Standard_Demo_Tasks\IntSemTest.o
                0x00000000004278c0                xInterruptGivePeriod
 .rdata         0x0000000000427900       0x50 Standard_Demo_Tasks\MessageBufferAMP.o
 .rdata         0x0000000000427950       0xc0 Standard_Demo_Tasks\MessageBufferDemo.o
 .rdata         0x0000000000427a10       0x20 Standard_Demo_Tasks\PollQ.o
 .rdata         0x0000000000427a30       0x30 Standard_Demo_Tasks\QPeek.o
 .rdata         0x0000000000427a60       0x30 Standard_Demo_Tasks\QueueOverwrite.o
 .rdata         0x0000000000427a90       0x30 Standard_Demo_Tasks\QueueSet.o
 .rdata         0x0000000000427ac0       0x10 Standard_Demo_Tasks\QueueSetPolling.o
 .rdata         0x0000000000427ad0       0x50 Standard_Demo_Tasks\StaticAllocation.o
 .rdata         0x0000000000427b20      0x120 Standard_Demo_Tasks\StreamBufferDemo.o
 .rdata         0x0000000000427c40       0x70 Standard_Demo_Tasks\StreamBufferInterrupt.o
 .rdata         0x0000000000427cb0       0x50 Standard_Demo_Tasks\TaskNotify.o
 .rdata         0x0000000000427d00       0x50 Standard_Demo_Tasks\TimerDemo.o
 .rdata         0x0000000000427d50       0x20 Standard_Demo_Tasks\blocktim.o
 .rdata         0x0000000000427d70       0x50 Standard_Demo_Tasks\countsem.o
 .rdata         0x0000000000427dc0       0x20 Standard_Demo_Tasks\death.o
 .rdata         0x0000000000427de0       0x60 Standard_Demo_Tasks\dynamic.o
 .rdata         0x0000000000427e40       0x70 Standard_Demo_Tasks\flop.o
 .rdata         0x0000000000427eb0       0x10 Standard_Demo_Tasks\integer.o
 .rdata         0x0000000000427ec0       0x40 Standard_Demo_Tasks\semtest.o
 .rdata         0x0000000000427f00       0x30 code_coverage_additions.o
 .rdata         0x0000000000427f30       0x70 main.o
 .rdata         0x0000000000427fa0       0x70 main_blinky.o
 .rdata         0x0000000000428010      0x510 main_full.o
 .rdata         0x0000000000428520       0x40 main_task1.o
 .rdata         0x0000000000428560       0x70 main_task2.o
 .rdata         0x00000000004285d0       0x80 main_task3.o
 .rdata         0x0000000000428650       0x40 main_task4.o
 .rdata         0x0000000000428690       0x10 K:/embedded/General Tools/General Tools/mingw64/bin/../lib/gcc/x86_64-w64-mingw32/6.2.0/../../../../x86_64-w64-mingw32/lib/../lib/libmingw32.a(lib64_libmingw32_a-gs_support.o)
 .rdata         0x00000000004286a0       0x10 K:/embedded/General Tools/General Tools/mingw64/bin/../lib/gcc/x86_64-w64-mingw32/6.2.0/../../../../x86_64-w64-mingw32/lib/../lib/libmingw32.a(lib64_libmingw32_a-tlssup.o)
                0x00000000004286a0                __dyn_tls_init_callback
 .rdata         0x00000000004286b0      0x140 K:/embedded/General Tools/General Tools/mingw64/bin/../lib/gcc/x86_64-w64-mingw32/6.2.0/../../../../x86_64-w64-mingw32/lib/../lib/libmingw32.a(lib64_libmingw32_a-merr.o)
 .rdata         0x00000000004287f0      0x110 K:/embedded/General Tools/General Tools/mingw64/bin/../lib/gcc/x86_64-w64-mingw32/6.2.0/../../../../x86_64-w64-mingw32/lib/../lib/libmingw32.a(lib64_libmingw32_a-pseudo-reloc.o)
 .rdata         0x0000000000428900       0x10 K:/embedded/General Tools/General Tools/mingw64/bin/../lib/gcc/x86_64-w64-mingw32/6.2.0/../../../../x86_64-w64-mingw32/lib/../lib/libmingw32.a(lib64_libmingw32_a-crt_handler.o)
 *(SORT(.rdata$*))
 .rdata$.refptr.CurrentFilterGroup
                0x0000000000428910       0x10 FreeRTOS_Source\event_groups.o
                0x0000000000428910                .refptr.CurrentFilterGroup
 .rdata$.refptr.CurrentFilterMask
                0x0000000000428920       0x10 FreeRTOS_Source\event_groups.o
                0x0000000000428920                .refptr.CurrentFilterMask
 .rdata$.refptr.RecorderDataPtr
                0x0000000000428930       0x10 FreeRTOS+Trace Recorder\trcKernelPort.o
                0x0000000000428930                .refptr.RecorderDataPtr
 .rdata$.refptr.TraceQueueClassTable
                0x0000000000428940       0x10 FreeRTOS_Source\queue.o
                0x0000000000428940                .refptr.TraceQueueClassTable
 .rdata$.refptr._CRT_MT
                0x0000000000428950       0x10 K:/embedded/General Tools/General Tools/mingw64/bin/../lib/gcc/x86_64-w64-mingw32/6.2.0/../../../../x86_64-w64-mingw32/lib/../lib/libmingw32.a(lib64_libmingw32_a-tlssup.o)
                0x0000000000428950                .refptr._CRT_MT
 .rdata$.refptr._MINGW_INSTALL_DEBUG_MATHERR
                0x0000000000428960       0x10 K:/embedded/General Tools/General Tools/mingw64/bin/../lib/gcc/x86_64-w64-mingw32/6.2.0/../../../../x86_64-w64-mingw32/lib/../lib/crt2.o
                0x0000000000428960                .refptr._MINGW_INSTALL_DEBUG_MATHERR
 .rdata$.refptr.__CTOR_LIST__
                0x0000000000428970       0x10 K:/embedded/General Tools/General Tools/mingw64/bin/../lib/gcc/x86_64-w64-mingw32/6.2.0/../../../../x86_64-w64-mingw32/lib/../lib/libmingw32.a(lib64_libmingw32_a-gccmain.o)
                0x0000000000428970                .refptr.__CTOR_LIST__
 .rdata$.refptr.__RUNTIME_PSEUDO_RELOC_LIST_END__
                0x0000000000428980       0x10 K:/embedded/General Tools/General Tools/mingw64/bin/../lib/gcc/x86_64-w64-mingw32/6.2.0/../../../../x86_64-w64-mingw32/lib/../lib/libmingw32.a(lib64_libmingw32_a-pseudo-reloc.o)
                0x0000000000428980                .refptr.__RUNTIME_PSEUDO_RELOC_LIST_END__
 .rdata$.refptr.__RUNTIME_PSEUDO_RELOC_LIST__
                0x0000000000428990       0x10 K:/embedded/General Tools/General Tools/mingw64/bin/../lib/gcc/x86_64-w64-mingw32/6.2.0/../../../../x86_64-w64-mingw32/lib/../lib/libmingw32.a(lib64_libmingw32_a-pseudo-reloc.o)
                0x0000000000428990                .refptr.__RUNTIME_PSEUDO_RELOC_LIST__
 .rdata$.refptr.__dyn_tls_init_callback
                0x00000000004289a0       0x10 K:/embedded/General Tools/General Tools/mingw64/bin/../lib/gcc/x86_64-w64-mingw32/6.2.0/../../../../x86_64-w64-mingw32/lib/../lib/crt2.o
                0x00000000004289a0                .refptr.__dyn_tls_init_callback
 .rdata$.refptr.__image_base__
                0x00000000004289b0       0x10 K:/embedded/General Tools/General Tools/mingw64/bin/../lib/gcc/x86_64-w64-mingw32/6.2.0/../../../../x86_64-w64-mingw32/lib/../lib/crt2.o
                0x00000000004289b0                .refptr.__image_base__
 .rdata$.refptr.__imp___initenv
                0x00000000004289c0       0x10 K:/embedded/General Tools/General Tools/mingw64/bin/../lib/gcc/x86_64-w64-mingw32/6.2.0/../../../../x86_64-w64-mingw32/lib/../lib/crt2.o
                0x00000000004289c0                .refptr.__imp___initenv
 .rdata$.refptr.__imp__acmdln
                0x00000000004289d0       0x10 K:/embedded/General Tools/General Tools/mingw64/bin/../lib/gcc/x86_64-w64-mingw32/6.2.0/../../../../x86_64-w64-mingw32/lib/../lib/crt2.o
                0x00000000004289d0                .refptr.__imp__acmdln
 .rdata$.refptr.__imp__fmode
                0x00000000004289e0       0x10 K:/embedded/General Tools/General Tools/mingw64/bin/../lib/gcc/x86_64-w64-mingw32/6.2.0/../../../../x86_64-w64-mingw32/lib/../lib/crt2.o
                0x00000000004289e0                .refptr.__imp__fmode
 .rdata$.refptr.__imp__onexit
                0x00000000004289f0       0x10 K:/embedded/General Tools/General Tools/mingw64/bin/../lib/gcc/x86_64-w64-mingw32/6.2.0/../../../../x86_64-w64-mingw32/lib/../lib/libmingw32.a(lib64_libmingw32_a-atonexit.o)
                0x00000000004289f0                .refptr.__imp__onexit
 .rdata$.refptr.__mingw_oldexcpt_handler
                0x0000000000428a00       0x10 K:/embedded/General Tools/General Tools/mingw64/bin/../lib/gcc/x86_64-w64-mingw32/6.2.0/../../../../x86_64-w64-mingw32/lib/../lib/crt2.o
                0x0000000000428a00                .refptr.__mingw_oldexcpt_handler
 .rdata$.refptr.__native_startup_lock
                0x0000000000428a10       0x10 K:/embedded/General Tools/General Tools/mingw64/bin/../lib/gcc/x86_64-w64-mingw32/6.2.0/../../../../x86_64-w64-mingw32/lib/../lib/crt2.o
                0x0000000000428a10                .refptr.__native_startup_lock
 .rdata$.refptr.__native_startup_state
                0x0000000000428a20       0x10 K:/embedded/General Tools/General Tools/mingw64/bin/../lib/gcc/x86_64-w64-mingw32/6.2.0/../../../../x86_64-w64-mingw32/lib/../lib/crt2.o
                0x0000000000428a20                .refptr.__native_startup_state
 .rdata$.refptr.__onexitbegin
                0x0000000000428a30       0x10 K:/embedded/General Tools/General Tools/mingw64/bin/../lib/gcc/x86_64-w64-mingw32/6.2.0/../../../../x86_64-w64-mingw32/lib/../lib/crt2.o
                0x0000000000428a30                .refptr.__onexitbegin
 .rdata$.refptr.__onexitend
                0x0000000000428a40       0x10 K:/embedded/General Tools/General Tools/mingw64/bin/../lib/gcc/x86_64-w64-mingw32/6.2.0/../../../../x86_64-w64-mingw32/lib/../lib/crt2.o
                0x0000000000428a40                .refptr.__onexitend
 .rdata$.refptr.__xc_a
                0x0000000000428a50       0x10 K:/embedded/General Tools/General Tools/mingw64/bin/../lib/gcc/x86_64-w64-mingw32/6.2.0/../../../../x86_64-w64-mingw32/lib/../lib/crt2.o
                0x0000000000428a50                .refptr.__xc_a
 .rdata$.refptr.__xc_z
                0x0000000000428a60       0x10 K:/embedded/General Tools/General Tools/mingw64/bin/../lib/gcc/x86_64-w64-mingw32/6.2.0/../../../../x86_64-w64-mingw32/lib/../lib/crt2.o
                0x0000000000428a60                .refptr.__xc_z
 .rdata$.refptr.__xi_a
                0x0000000000428a70       0x10 K:/embedded/General Tools/General Tools/mingw64/bin/../lib/gcc/x86_64-w64-mingw32/6.2.0/../../../../x86_64-w64-mingw32/lib/../lib/crt2.o
                0x0000000000428a70                .refptr.__xi_a
 .rdata$.refptr.__xi_z
                0x0000000000428a80       0x10 K:/embedded/General Tools/General Tools/mingw64/bin/../lib/gcc/x86_64-w64-mingw32/6.2.0/../../../../x86_64-w64-mingw32/lib/../lib/crt2.o
                0x0000000000428a80                .refptr.__xi_z
 .rdata$.refptr._dowildcard
                0x0000000000428a90       0x10 K:/embedded/General Tools/General Tools/mingw64/bin/../lib/gcc/x86_64-w64-mingw32/6.2.0/../../../../x86_64-w64-mingw32/lib/../lib/crt2.o
                0x0000000000428a90                .refptr._dowildcard
 .rdata$.refptr._fmode
                0x0000000000428aa0       0x10 K:/embedded/General Tools/General Tools/mingw64/bin/../lib/gcc/x86_64-w64-mingw32/6.2.0/../../../../x86_64-w64-mingw32/lib/../lib/crt2.o
                0x0000000000428aa0                .refptr._fmode
 .rdata$.refptr._gnu_exception_handler
                0x0000000000428ab0       0x10 K:/embedded/General Tools/General Tools/mingw64/bin/../lib/gcc/x86_64-w64-mingw32/6.2.0/../../../../x86_64-w64-mingw32/lib/../lib/crt2.o
                0x0000000000428ab0                .refptr._gnu_exception_handler
 .rdata$.refptr._matherr
                0x0000000000428ac0       0x10 K:/embedded/General Tools/General Tools/mingw64/bin/../lib/gcc/x86_64-w64-mingw32/6.2.0/../../../../x86_64-w64-mingw32/lib/../lib/crt2.o
                0x0000000000428ac0                .refptr._matherr
 .rdata$.refptr._newmode
                0x0000000000428ad0       0x10 K:/embedded/General Tools/General Tools/mingw64/bin/../lib/gcc/x86_64-w64-mingw32/6.2.0/../../../../x86_64-w64-mingw32/lib/../lib/crt2.o
                0x0000000000428ad0                .refptr._newmode
 .rdata$.refptr.mingw_app_type
                0x0000000000428ae0       0x10 K:/embedded/General Tools/General Tools/mingw64/bin/../lib/gcc/x86_64-w64-mingw32/6.2.0/../../../../x86_64-w64-mingw32/lib/../lib/crt2.o
                0x0000000000428ae0                .refptr.mingw_app_type
 .rdata$.refptr.mingw_initcharmax
                0x0000000000428af0       0x10 K:/embedded/General Tools/General Tools/mingw64/bin/../lib/gcc/x86_64-w64-mingw32/6.2.0/../../../../x86_64-w64-mingw32/lib/../lib/crt2.o
                0x0000000000428af0                .refptr.mingw_initcharmax
 .rdata$.refptr.mingw_initltsdrot_force
                0x0000000000428b00       0x10 K:/embedded/General Tools/General Tools/mingw64/bin/../lib/gcc/x86_64-w64-mingw32/6.2.0/../../../../x86_64-w64-mingw32/lib/../lib/crt2.o
                0x0000000000428b00                .refptr.mingw_initltsdrot_force
 .rdata$.refptr.mingw_initltsdyn_force
                0x0000000000428b10       0x10 K:/embedded/General Tools/General Tools/mingw64/bin/../lib/gcc/x86_64-w64-mingw32/6.2.0/../../../../x86_64-w64-mingw32/lib/../lib/crt2.o
                0x0000000000428b10                .refptr.mingw_initltsdyn_force
 .rdata$.refptr.mingw_initltssuo_force
                0x0000000000428b20       0x10 K:/embedded/General Tools/General Tools/mingw64/bin/../lib/gcc/x86_64-w64-mingw32/6.2.0/../../../../x86_64-w64-mingw32/lib/../lib/crt2.o
                0x0000000000428b20                .refptr.mingw_initltssuo_force
 .rdata$.refptr.objectHandleStacks
                0x0000000000428b30       0x10 FreeRTOS+Trace Recorder\trcKernelPort.o
                0x0000000000428b30                .refptr.objectHandleStacks
 .rdata$.refptr.pxCurrentTCB
                0x0000000000428b40       0x10 FreeRTOS_Source\portable\MSVC-MingW\port.o
                0x0000000000428b40                .refptr.pxCurrentTCB
 .rdata$.refptr.uiInEventGroupSetBitsFromISR
                0x0000000000428b50       0x10 FreeRTOS_Source\event_groups.o
                0x0000000000428b50                .refptr.uiInEventGroupSetBitsFromISR
 .rdata$.refptr.uiTraceTickCount
                0x0000000000428b60       0x10 FreeRTOS_Source\tasks.o
                0x0000000000428b60                .refptr.uiTraceTickCount
 .rdata$.refptr.uxTimerTaskStack
                0x0000000000428b70       0x10 main_full.o
                0x0000000000428b70                .refptr.uxTimerTaskStack
 .rdata$.refptr.xInsideInterrupt
                0x0000000000428b80       0x10 FreeRTOS_Source\tasks.o
                0x0000000000428b80                .refptr.xInsideInterrupt
 .rdata$zzz     0x0000000000428b90       0x40 K:/embedded/General Tools/General Tools/mingw64/bin/../lib/gcc/x86_64-w64-mingw32/6.2.0/../../../../x86_64-w64-mingw32/lib/../lib/crt2.o
 .rdata$zzz     0x0000000000428bd0       0x40 K:/embedded/General Tools/General Tools/mingw64/bin/../lib/gcc/x86_64-w64-mingw32/6.2.0/crtbegin.o
 .rdata$zzz     0x0000000000428c10       0x40 DemosModifiedForLowTickRate\recmutex.o
 .rdata$zzz     0x0000000000428c50       0x40 FreeRTOS+Trace Recorder\trcKernelPort.o
 .rdata$zzz     0x0000000000428c90       0x40 FreeRTOS+Trace Recorder\trcSnapshotRecorder.o
 .rdata$zzz     0x0000000000428cd0       0x40 FreeRTOS+Trace Recorder\trcStreamingRecorder.o
 .rdata$zzz     0x0000000000428d10       0x40 FreeRTOS_Source\croutine.o
 .rdata$zzz     0x0000000000428d50       0x40 FreeRTOS_Source\event_groups.o
 .rdata$zzz     0x0000000000428d90       0x40 FreeRTOS_Source\list.o
 .rdata$zzz     0x0000000000428dd0       0x40 FreeRTOS_Source\portable\MSVC-MingW\port.o
 .rdata$zzz     0x0000000000428e10       0x40 FreeRTOS_Source\portable\MemMang\heap_5.o
 .rdata$zzz     0x0000000000428e50       0x40 FreeRTOS_Source\queue.o
 .rdata$zzz     0x0000000000428e90       0x40 FreeRTOS_Source\stream_buffer.o
 .rdata$zzz     0x0000000000428ed0       0x40 FreeRTOS_Source\tasks.o
 .rdata$zzz     0x0000000000428f10       0x40 FreeRTOS_Source\timers.o
 .rdata$zzz     0x0000000000428f50       0x40 Run-time-stats-utils.o
 .rdata$zzz     0x0000000000428f90       0x40 Standard_Demo_Tasks\AbortDelay.o
 .rdata$zzz     0x0000000000428fd0       0x40 Standard_Demo_Tasks\BlockQ.o
 .rdata$zzz     0x0000000000429010       0x40 Standard_Demo_Tasks\EventGroupsDemo.o
 .rdata$zzz     0x0000000000429050       0x40 Standard_Demo_Tasks\GenQTest.o
 .rdata$zzz     0x0000000000429090       0x40 Standard_Demo_Tasks\IntSemTest.o
 .rdata$zzz     0x00000000004290d0       0x40 Standard_Demo_Tasks\MessageBufferAMP.o
 .rdata$zzz     0x0000000000429110       0x40 Standard_Demo_Tasks\MessageBufferDemo.o
 .rdata$zzz     0x0000000000429150       0x40 Standard_Demo_Tasks\PollQ.o
 .rdata$zzz     0x0000000000429190       0x40 Standard_Demo_Tasks\QPeek.o
 .rdata$zzz     0x00000000004291d0       0x40 Standard_Demo_Tasks\QueueOverwrite.o
 .rdata$zzz     0x0000000000429210       0x40 Standard_Demo_Tasks\QueueSet.o
 .rdata$zzz     0x0000000000429250       0x40 Standard_Demo_Tasks\QueueSetPolling.o
 .rdata$zzz     0x0000000000429290       0x40 Standard_Demo_Tasks\StaticAllocation.o
 .rdata$zzz     0x00000000004292d0       0x40 Standard_Demo_Tasks\StreamBufferDemo.o
 .rdata$zzz     0x0000000000429310       0x40 Standard_Demo_Tasks\StreamBufferInterrupt.o
 .rdata$zzz     0x0000000000429350       0x40 Standard_Demo_Tasks\TaskNotify.o
 .rdata$zzz     0x0000000000429390       0x40 Standard_Demo_Tasks\TimerDemo.o
 .rdata$zzz     0x00000000004293d0       0x40 Standard_Demo_Tasks\blocktim.o
 .rdata$zzz     0x0000000000429410       0x40 Standard_Demo_Tasks\countsem.o
 .rdata$zzz     0x0000000000429450       0x40 Standard_Demo_Tasks\death.o
 .rdata$zzz     0x0000000000429490       0x40 Standard_Demo_Tasks\dynamic.o
 .rdata$zzz     0x00000000004294d0       0x40 Standard_Demo_Tasks\flop.o
 .rdata$zzz     0x0000000000429510       0x40 Standard_Demo_Tasks\integer.o
 .rdata$zzz     0x0000000000429550       0x40 Standard_Demo_Tasks\semtest.o
 .rdata$zzz     0x0000000000429590       0x40 code_coverage_additions.o
 .rdata$zzz     0x00000000004295d0       0x40 main.o
 .rdata$zzz     0x0000000000429610       0x40 main_blinky.o
 .rdata$zzz     0x0000000000429650       0x40 main_full.o
 .rdata$zzz     0x0000000000429690       0x40 main_task1.o
 .rdata$zzz     0x00000000004296d0       0x40 main_task2.o
 .rdata$zzz     0x0000000000429710       0x40 main_task3.o
 .rdata$zzz     0x0000000000429750       0x40 main_task4.o
 .rdata$zzz     0x0000000000429790       0x40 K:/embedded/General Tools/General Tools/mingw64/bin/../lib/gcc/x86_64-w64-mingw32/6.2.0/../../../../x86_64-w64-mingw32/lib/../lib/libmingw32.a(lib64_libmingw32_a-atonexit.o)
 .rdata$zzz     0x00000000004297d0       0x40 K:/embedded/General Tools/General Tools/mingw64/bin/../lib/gcc/x86_64-w64-mingw32/6.2.0/../../../../x86_64-w64-mingw32/lib/../lib/libmingw32.a(lib64_libmingw32_a-gccmain.o)
 .rdata$zzz     0x0000000000429810       0x40 K:/embedded/General Tools/General Tools/mingw64/bin/../lib/gcc/x86_64-w64-mingw32/6.2.0/../../../../x86_64-w64-mingw32/lib/../lib/libmingw32.a(lib64_libmingw32_a-natstart.o)
 .rdata$zzz     0x0000000000429850       0x40 K:/embedded/General Tools/General Tools/mingw64/bin/../lib/gcc/x86_64-w64-mingw32/6.2.0/../../../../x86_64-w64-mingw32/lib/../lib/libmingw32.a(lib64_libmingw32_a-wildcard.o)
 .rdata$zzz     0x0000000000429890       0x40 K:/embedded/General Tools/General Tools/mingw64/bin/../lib/gcc/x86_64-w64-mingw32/6.2.0/../../../../x86_64-w64-mingw32/lib/../lib/libmingw32.a(lib64_libmingw32_a-charmax.o)
 .rdata$zzz     0x00000000004298d0       0x40 K:/embedded/General Tools/General Tools/mingw64/bin/../lib/gcc/x86_64-w64-mingw32/6.2.0/../../../../x86_64-w64-mingw32/lib/../lib/libmingw32.a(lib64_libmingw32_a-dllargv.o)
 .rdata$zzz     0x0000000000429910       0x40 K:/embedded/General Tools/General Tools/mingw64/bin/../lib/gcc/x86_64-w64-mingw32/6.2.0/../../../../x86_64-w64-mingw32/lib/../lib/libmingw32.a(lib64_libmingw32_a-gs_support.o)
 .rdata$zzz     0x0000000000429950       0x40 K:/embedded/General Tools/General Tools/mingw64/bin/../lib/gcc/x86_64-w64-mingw32/6.2.0/../../../../x86_64-w64-mingw32/lib/../lib/libmingw32.a(lib64_libmingw32_a-_newmode.o)
 .rdata$zzz     0x0000000000429990       0x40 K:/embedded/General Tools/General Tools/mingw64/bin/../lib/gcc/x86_64-w64-mingw32/6.2.0/../../../../x86_64-w64-mingw32/lib/../lib/libmingw32.a(lib64_libmingw32_a-tlssup.o)
 .rdata$zzz     0x00000000004299d0       0x40 K:/embedded/General Tools/General Tools/mingw64/bin/../lib/gcc/x86_64-w64-mingw32/6.2.0/../../../../x86_64-w64-mingw32/lib/../lib/libmingw32.a(lib64_libmingw32_a-cinitexe.o)
 .rdata$zzz     0x0000000000429a10       0x40 K:/embedded/General Tools/General Tools/mingw64/bin/../lib/gcc/x86_64-w64-mingw32/6.2.0/../../../../x86_64-w64-mingw32/lib/../lib/libmingw32.a(lib64_libmingw32_a-merr.o)
 .rdata$zzz     0x0000000000429a50       0x40 K:/embedded/General Tools/General Tools/mingw64/bin/../lib/gcc/x86_64-w64-mingw32/6.2.0/../../../../x86_64-w64-mingw32/lib/../lib/libmingw32.a(lib64_libmingw32_a-CRT_fp10.o)
 .rdata$zzz     0x0000000000429a90       0x40 K:/embedded/General Tools/General Tools/mingw64/bin/../lib/gcc/x86_64-w64-mingw32/6.2.0/../../../../x86_64-w64-mingw32/lib/../lib/libmingw32.a(lib64_libmingw32_a-mingw_helpers.o)
 .rdata$zzz     0x0000000000429ad0       0x40 K:/embedded/General Tools/General Tools/mingw64/bin/../lib/gcc/x86_64-w64-mingw32/6.2.0/../../../../x86_64-w64-mingw32/lib/../lib/libmingw32.a(lib64_libmingw32_a-pseudo-reloc.o)
 .rdata$zzz     0x0000000000429b10       0x40 K:/embedded/General Tools/General Tools/mingw64/bin/../lib/gcc/x86_64-w64-mingw32/6.2.0/../../../../x86_64-w64-mingw32/lib/../lib/libmingw32.a(lib64_libmingw32_a-xtxtmode.o)
 .rdata$zzz     0x0000000000429b50       0x40 K:/embedded/General Tools/General Tools/mingw64/bin/../lib/gcc/x86_64-w64-mingw32/6.2.0/../../../../x86_64-w64-mingw32/lib/../lib/libmingw32.a(lib64_libmingw32_a-crt_handler.o)
 .rdata$zzz     0x0000000000429b90       0x40 K:/embedded/General Tools/General Tools/mingw64/bin/../lib/gcc/x86_64-w64-mingw32/6.2.0/../../../../x86_64-w64-mingw32/lib/../lib/libmingw32.a(lib64_libmingw32_a-tlsthrd.o)
 .rdata$zzz     0x0000000000429bd0       0x40 K:/embedded/General Tools/General Tools/mingw64/bin/../lib/gcc/x86_64-w64-mingw32/6.2.0/../../../../x86_64-w64-mingw32/lib/../lib/libmingw32.a(lib64_libmingw32_a-tlsmcrt.o)
 .rdata$zzz     0x0000000000429c10       0x40 K:/embedded/General Tools/General Tools/mingw64/bin/../lib/gcc/x86_64-w64-mingw32/6.2.0/../../../../x86_64-w64-mingw32/lib/../lib/libmingw32.a(lib64_libmingw32_a-pseudo-reloc-list.o)
 .rdata$zzz     0x0000000000429c50       0x40 K:/embedded/General Tools/General Tools/mingw64/bin/../lib/gcc/x86_64-w64-mingw32/6.2.0/../../../../x86_64-w64-mingw32/lib/../lib/libmingw32.a(lib64_libmingw32_a-pesect.o)
 .rdata$zzz     0x0000000000429c90       0x40 K:/embedded/General Tools/General Tools/mingw64/bin/../lib/gcc/x86_64-w64-mingw32/6.2.0/libgcc.a(_ctors.o)
 .rdata$zzz     0x0000000000429cd0       0x40 K:/embedded/General Tools/General Tools/mingw64/bin/../lib/gcc/x86_64-w64-mingw32/6.2.0/../../../../x86_64-w64-mingw32/lib/../lib/libmingwex.a(lib64_libmingwex_a-mingw_matherr.o)
 .rdata$zzz     0x0000000000429d10       0x40 K:/embedded/General Tools/General Tools/mingw64/bin/../lib/gcc/x86_64-w64-mingw32/6.2.0/../../../../x86_64-w64-mingw32/lib/../lib/libmsvcrt.a(lib64_libmsvcrt_a-invalid_parameter_handler.o)
 .rdata$zzz     0x0000000000429d50       0x40 K:/embedded/General Tools/General Tools/mingw64/bin/../lib/gcc/x86_64-w64-mingw32/6.2.0/crtend.o
                0x0000000000429d90                __rt_psrelocs_start = .
 *(.rdata_runtime_pseudo_reloc)
                0x0000000000429d90                __rt_psrelocs_end = .
                0x0000000000000000                __rt_psrelocs_size = (__rt_psrelocs_end - __rt_psrelocs_start)
                0x0000000000429d90                ___RUNTIME_PSEUDO_RELOC_LIST_END__ = .
                0x0000000000429d90                __RUNTIME_PSEUDO_RELOC_LIST_END__ = .
                0x0000000000429d90                ___RUNTIME_PSEUDO_RELOC_LIST__ = (. - __rt_psrelocs_size)
                0x0000000000429d90                __RUNTIME_PSEUDO_RELOC_LIST__ = (. - __rt_psrelocs_size)

.eh_frame
 *(.eh_frame*)

.pdata          0x000000000042a000     0x1e00
 *(.pdata*)
 .pdata         0x000000000042a000       0x48 K:/embedded/General Tools/General Tools/mingw64/bin/../lib/gcc/x86_64-w64-mingw32/6.2.0/../../../../x86_64-w64-mingw32/lib/../lib/crt2.o
 .pdata         0x000000000042a048       0x24 K:/embedded/General Tools/General Tools/mingw64/bin/../lib/gcc/x86_64-w64-mingw32/6.2.0/crtbegin.o
 .pdata         0x000000000042a06c       0x3c DemosModifiedForLowTickRate\recmutex.o
 .pdata         0x000000000042a0a8      0x18c FreeRTOS+Trace Recorder\trcKernelPort.o
 .pdata         0x000000000042a234      0x2dc FreeRTOS+Trace Recorder\trcSnapshotRecorder.o
 .pdata         0x000000000042a510       0xb4 FreeRTOS_Source\event_groups.o
 .pdata         0x000000000042a5c4       0x3c FreeRTOS_Source\list.o
 .pdata         0x000000000042a600       0xa8 FreeRTOS_Source\portable\MSVC-MingW\port.o
 .pdata         0x000000000042a6a8       0x54 FreeRTOS_Source\portable\MemMang\heap_5.o
 .pdata         0x000000000042a6fc      0x228 FreeRTOS_Source\queue.o
 .pdata         0x000000000042a924      0x12c FreeRTOS_Source\stream_buffer.o
 .pdata         0x000000000042aa50      0x360 FreeRTOS_Source\tasks.o
 .pdata         0x000000000042adb0      0x144 FreeRTOS_Source\timers.o
 .pdata         0x000000000042aef4       0x18 Run-time-stats-utils.o
 .pdata         0x000000000042af0c       0xa8 Standard_Demo_Tasks\AbortDelay.o
 .pdata         0x000000000042afb4       0x30 Standard_Demo_Tasks\BlockQ.o
 .pdata         0x000000000042afe4       0x78 Standard_Demo_Tasks\EventGroupsDemo.o
 .pdata         0x000000000042b05c       0x6c Standard_Demo_Tasks\GenQTest.o
 .pdata         0x000000000042b0c8       0x60 Standard_Demo_Tasks\IntSemTest.o
 .pdata         0x000000000042b128       0x48 Standard_Demo_Tasks\MessageBufferAMP.o
 .pdata         0x000000000042b170       0x6c Standard_Demo_Tasks\MessageBufferDemo.o
 .pdata         0x000000000042b1dc       0x30 Standard_Demo_Tasks\PollQ.o
 .pdata         0x000000000042b20c       0x48 Standard_Demo_Tasks\QPeek.o
 .pdata         0x000000000042b254       0x30 Standard_Demo_Tasks\QueueOverwrite.o
 .pdata         0x000000000042b284       0xc0 Standard_Demo_Tasks\QueueSet.o
 .pdata         0x000000000042b344       0x30 Standard_Demo_Tasks\QueueSetPolling.o
 .pdata         0x000000000042b374       0xe4 Standard_Demo_Tasks\StaticAllocation.o
 .pdata         0x000000000042b458       0x90 Standard_Demo_Tasks\StreamBufferDemo.o
 .pdata         0x000000000042b4e8       0x30 Standard_Demo_Tasks\StreamBufferInterrupt.o
 .pdata         0x000000000042b518       0x60 Standard_Demo_Tasks\TaskNotify.o
 .pdata         0x000000000042b578       0xb4 Standard_Demo_Tasks\TimerDemo.o
 .pdata         0x000000000042b62c       0x3c Standard_Demo_Tasks\blocktim.o
 .pdata         0x000000000042b668       0x3c Standard_Demo_Tasks\countsem.o
 .pdata         0x000000000042b6a4       0x30 Standard_Demo_Tasks\death.o
 .pdata         0x000000000042b6d4       0x54 Standard_Demo_Tasks\dynamic.o
 .pdata         0x000000000042b728       0x48 Standard_Demo_Tasks\flop.o
 .pdata         0x000000000042b770       0x24 Standard_Demo_Tasks\integer.o
 .pdata         0x000000000042b794       0x24 Standard_Demo_Tasks\semtest.o
 .pdata         0x000000000042b7b8       0x6c code_coverage_additions.o
 .pdata         0x000000000042b824       0x90 main.o
 .pdata         0x000000000042b8b4       0x30 main_blinky.o
 .pdata         0x000000000042b8e4       0xb4 main_full.o
 .pdata         0x000000000042b998       0x24 main_task1.o
 .pdata         0x000000000042b9bc       0x30 main_task2.o
 .pdata         0x000000000042b9ec       0x30 main_task3.o
 .pdata         0x000000000042ba1c       0x24 main_task4.o
 .pdata         0x000000000042ba40       0x18 K:/embedded/General Tools/General Tools/mingw64/bin/../lib/gcc/x86_64-w64-mingw32/6.2.0/../../../../x86_64-w64-mingw32/lib/../lib/libmingw32.a(lib64_libmingw32_a-atonexit.o)
 .pdata         0x000000000042ba58       0x24 K:/embedded/General Tools/General Tools/mingw64/bin/../lib/gcc/x86_64-w64-mingw32/6.2.0/../../../../x86_64-w64-mingw32/lib/../lib/libmingw32.a(lib64_libmingw32_a-gccmain.o)
 .pdata         0x000000000042ba7c        0xc K:/embedded/General Tools/General Tools/mingw64/bin/../lib/gcc/x86_64-w64-mingw32/6.2.0/../../../../x86_64-w64-mingw32/lib/../lib/libmingw32.a(lib64_libmingw32_a-charmax.o)
 .pdata         0x000000000042ba88        0xc K:/embedded/General Tools/General Tools/mingw64/bin/../lib/gcc/x86_64-w64-mingw32/6.2.0/../../../../x86_64-w64-mingw32/lib/../lib/libmingw32.a(lib64_libmingw32_a-dllargv.o)
 .pdata         0x000000000042ba94       0x18 K:/embedded/General Tools/General Tools/mingw64/bin/../lib/gcc/x86_64-w64-mingw32/6.2.0/../../../../x86_64-w64-mingw32/lib/../lib/libmingw32.a(lib64_libmingw32_a-gs_support.o)
 .pdata         0x000000000042baac       0x24 K:/embedded/General Tools/General Tools/mingw64/bin/../lib/gcc/x86_64-w64-mingw32/6.2.0/../../../../x86_64-w64-mingw32/lib/../lib/libmingw32.a(lib64_libmingw32_a-tlssup.o)
 .pdata         0x000000000042bad0       0x24 K:/embedded/General Tools/General Tools/mingw64/bin/../lib/gcc/x86_64-w64-mingw32/6.2.0/../../../../x86_64-w64-mingw32/lib/../lib/libmingw32.a(lib64_libmingw32_a-merr.o)
 .pdata         0x000000000042baf4        0xc K:/embedded/General Tools/General Tools/mingw64/bin/../lib/gcc/x86_64-w64-mingw32/6.2.0/../../../../x86_64-w64-mingw32/lib/../lib/libmingw32.a(lib64_libmingw32_a-CRT_fp10.o)
 .pdata         0x000000000042bb00       0x18 K:/embedded/General Tools/General Tools/mingw64/bin/../lib/gcc/x86_64-w64-mingw32/6.2.0/../../../../x86_64-w64-mingw32/lib/../lib/libmingw32.a(lib64_libmingw32_a-mingw_helpers.o)
 .pdata         0x000000000042bb18       0x24 K:/embedded/General Tools/General Tools/mingw64/bin/../lib/gcc/x86_64-w64-mingw32/6.2.0/../../../../x86_64-w64-mingw32/lib/../lib/libmingw32.a(lib64_libmingw32_a-pseudo-reloc.o)
 .pdata         0x000000000042bb3c       0x24 K:/embedded/General Tools/General Tools/mingw64/bin/../lib/gcc/x86_64-w64-mingw32/6.2.0/../../../../x86_64-w64-mingw32/lib/../lib/libmingw32.a(lib64_libmingw32_a-crt_handler.o)
 .pdata         0x000000000042bb60       0x30 K:/embedded/General Tools/General Tools/mingw64/bin/../lib/gcc/x86_64-w64-mingw32/6.2.0/../../../../x86_64-w64-mingw32/lib/../lib/libmingw32.a(lib64_libmingw32_a-tlsthrd.o)
 .pdata         0x000000000042bb90       0x78 K:/embedded/General Tools/General Tools/mingw64/bin/../lib/gcc/x86_64-w64-mingw32/6.2.0/../../../../x86_64-w64-mingw32/lib/../lib/libmingw32.a(lib64_libmingw32_a-pesect.o)
 .pdata         0x000000000042bc08       0x18 K:/embedded/General Tools/General Tools/mingw64/bin/../lib/gcc/x86_64-w64-mingw32/6.2.0/../../../../x86_64-w64-mingw32/lib/../lib/libmsvcrt.a(lib64_libmsvcrt_a-invalid_parameter_handler.o)
 .pdata.startup
                0x000000000042bc20        0xc K:/embedded/General Tools/General Tools/mingw64/bin/../lib/gcc/x86_64-w64-mingw32/6.2.0/crtend.o

.xdata          0x000000000042c000     0x1c00
 *(.xdata*)
 .xdata         0x000000000042c000       0x68 K:/embedded/General Tools/General Tools/mingw64/bin/../lib/gcc/x86_64-w64-mingw32/6.2.0/../../../../x86_64-w64-mingw32/lib/../lib/crt2.o
 .xdata         0x000000000042c068       0x1c K:/embedded/General Tools/General Tools/mingw64/bin/../lib/gcc/x86_64-w64-mingw32/6.2.0/crtbegin.o
 .xdata         0x000000000042c084       0x3c DemosModifiedForLowTickRate\recmutex.o
 .xdata         0x000000000042c0c0      0x180 FreeRTOS+Trace Recorder\trcKernelPort.o
 .xdata         0x000000000042c240      0x2b4 FreeRTOS+Trace Recorder\trcSnapshotRecorder.o
 .xdata         0x000000000042c4f4       0xb0 FreeRTOS_Source\event_groups.o
 .xdata         0x000000000042c5a4       0x34 FreeRTOS_Source\list.o
 .xdata         0x000000000042c5d8       0xa4 FreeRTOS_Source\portable\MSVC-MingW\port.o
 .xdata         0x000000000042c67c       0x4c FreeRTOS_Source\portable\MemMang\heap_5.o
 .xdata         0x000000000042c6c8      0x248 FreeRTOS_Source\queue.o
 .xdata         0x000000000042c910      0x120 FreeRTOS_Source\stream_buffer.o
 .xdata         0x000000000042ca30      0x348 FreeRTOS_Source\tasks.o
 .xdata         0x000000000042cd78      0x13c FreeRTOS_Source\timers.o
 .xdata         0x000000000042ceb4       0x18 Run-time-stats-utils.o
 .xdata         0x000000000042cecc       0xa8 Standard_Demo_Tasks\AbortDelay.o
 .xdata         0x000000000042cf74       0x30 Standard_Demo_Tasks\BlockQ.o
 .xdata         0x000000000042cfa4       0x78 Standard_Demo_Tasks\EventGroupsDemo.o
 .xdata         0x000000000042d01c       0x68 Standard_Demo_Tasks\GenQTest.o
 .xdata         0x000000000042d084       0x5c Standard_Demo_Tasks\IntSemTest.o
 .xdata         0x000000000042d0e0       0x48 Standard_Demo_Tasks\MessageBufferAMP.o
 .xdata         0x000000000042d128       0x6c Standard_Demo_Tasks\MessageBufferDemo.o
 .xdata         0x000000000042d194       0x30 Standard_Demo_Tasks\PollQ.o
 .xdata         0x000000000042d1c4       0x44 Standard_Demo_Tasks\QPeek.o
 .xdata         0x000000000042d208       0x30 Standard_Demo_Tasks\QueueOverwrite.o
 .xdata         0x000000000042d238       0xb8 Standard_Demo_Tasks\QueueSet.o
 .xdata         0x000000000042d2f0       0x2c Standard_Demo_Tasks\QueueSetPolling.o
 .xdata         0x000000000042d31c       0xe4 Standard_Demo_Tasks\StaticAllocation.o
 .xdata         0x000000000042d400       0x90 Standard_Demo_Tasks\StreamBufferDemo.o
 .xdata         0x000000000042d490       0x30 Standard_Demo_Tasks\StreamBufferInterrupt.o
 .xdata         0x000000000042d4c0       0x60 Standard_Demo_Tasks\TaskNotify.o
 .xdata         0x000000000042d520       0xac Standard_Demo_Tasks\TimerDemo.o
 .xdata         0x000000000042d5cc       0x3c Standard_Demo_Tasks\blocktim.o
 .xdata         0x000000000042d608       0x3c Standard_Demo_Tasks\countsem.o
 .xdata         0x000000000042d644       0x30 Standard_Demo_Tasks\death.o
 .xdata         0x000000000042d674       0x54 Standard_Demo_Tasks\dynamic.o
 .xdata         0x000000000042d6c8       0x48 Standard_Demo_Tasks\flop.o
 .xdata         0x000000000042d710       0x24 Standard_Demo_Tasks\integer.o
 .xdata         0x000000000042d734       0x24 Standard_Demo_Tasks\semtest.o
 .xdata         0x000000000042d758       0x68 code_coverage_additions.o
 .xdata         0x000000000042d7c0       0x8c main.o
 .xdata         0x000000000042d84c       0x30 main_blinky.o
 .xdata         0x000000000042d87c       0xb8 main_full.o
 .xdata         0x000000000042d934       0x24 main_task1.o
 .xdata         0x000000000042d958       0x30 main_task2.o
 .xdata         0x000000000042d988       0x30 main_task3.o
 .xdata         0x000000000042d9b8       0x24 main_task4.o
 .xdata         0x000000000042d9dc       0x10 K:/embedded/General Tools/General Tools/mingw64/bin/../lib/gcc/x86_64-w64-mingw32/6.2.0/../../../../x86_64-w64-mingw32/lib/../lib/libmingw32.a(lib64_libmingw32_a-atonexit.o)
 .xdata         0x000000000042d9ec       0x18 K:/embedded/General Tools/General Tools/mingw64/bin/../lib/gcc/x86_64-w64-mingw32/6.2.0/../../../../x86_64-w64-mingw32/lib/../lib/libmingw32.a(lib64_libmingw32_a-gccmain.o)
 .xdata         0x000000000042da04        0x4 K:/embedded/General Tools/General Tools/mingw64/bin/../lib/gcc/x86_64-w64-mingw32/6.2.0/../../../../x86_64-w64-mingw32/lib/../lib/libmingw32.a(lib64_libmingw32_a-charmax.o)
 .xdata         0x000000000042da08        0x4 K:/embedded/General Tools/General Tools/mingw64/bin/../lib/gcc/x86_64-w64-mingw32/6.2.0/../../../../x86_64-w64-mingw32/lib/../lib/libmingw32.a(lib64_libmingw32_a-dllargv.o)
 .xdata         0x000000000042da0c       0x20 K:/embedded/General Tools/General Tools/mingw64/bin/../lib/gcc/x86_64-w64-mingw32/6.2.0/../../../../x86_64-w64-mingw32/lib/../lib/libmingw32.a(lib64_libmingw32_a-gs_support.o)
 .xdata         0x000000000042da2c       0x18 K:/embedded/General Tools/General Tools/mingw64/bin/../lib/gcc/x86_64-w64-mingw32/6.2.0/../../../../x86_64-w64-mingw32/lib/../lib/libmingw32.a(lib64_libmingw32_a-tlssup.o)
 .xdata         0x000000000042da44       0x24 K:/embedded/General Tools/General Tools/mingw64/bin/../lib/gcc/x86_64-w64-mingw32/6.2.0/../../../../x86_64-w64-mingw32/lib/../lib/libmingw32.a(lib64_libmingw32_a-merr.o)
 .xdata         0x000000000042da68        0x4 K:/embedded/General Tools/General Tools/mingw64/bin/../lib/gcc/x86_64-w64-mingw32/6.2.0/../../../../x86_64-w64-mingw32/lib/../lib/libmingw32.a(lib64_libmingw32_a-CRT_fp10.o)
 .xdata         0x000000000042da6c        0x8 K:/embedded/General Tools/General Tools/mingw64/bin/../lib/gcc/x86_64-w64-mingw32/6.2.0/../../../../x86_64-w64-mingw32/lib/../lib/libmingw32.a(lib64_libmingw32_a-mingw_helpers.o)
 .xdata         0x000000000042da74       0x38 K:/embedded/General Tools/General Tools/mingw64/bin/../lib/gcc/x86_64-w64-mingw32/6.2.0/../../../../x86_64-w64-mingw32/lib/../lib/libmingw32.a(lib64_libmingw32_a-pseudo-reloc.o)
 .xdata         0x000000000042daac       0x20 K:/embedded/General Tools/General Tools/mingw64/bin/../lib/gcc/x86_64-w64-mingw32/6.2.0/../../../../x86_64-w64-mingw32/lib/../lib/libmingw32.a(lib64_libmingw32_a-crt_handler.o)
 .xdata         0x000000000042dacc       0x2c K:/embedded/General Tools/General Tools/mingw64/bin/../lib/gcc/x86_64-w64-mingw32/6.2.0/../../../../x86_64-w64-mingw32/lib/../lib/libmingw32.a(lib64_libmingw32_a-tlsthrd.o)
 .xdata         0x000000000042daf8       0x60 K:/embedded/General Tools/General Tools/mingw64/bin/../lib/gcc/x86_64-w64-mingw32/6.2.0/../../../../x86_64-w64-mingw32/lib/../lib/libmingw32.a(lib64_libmingw32_a-pesect.o)
 .xdata         0x000000000042db58        0x8 K:/embedded/General Tools/General Tools/mingw64/bin/../lib/gcc/x86_64-w64-mingw32/6.2.0/../../../../x86_64-w64-mingw32/lib/../lib/libmsvcrt.a(lib64_libmsvcrt_a-invalid_parameter_handler.o)
 .xdata.startup
                0x000000000042db60        0x8 K:/embedded/General Tools/General Tools/mingw64/bin/../lib/gcc/x86_64-w64-mingw32/6.2.0/crtend.o

.bss            0x000000000042e000    0x26ee0
                0x000000000042e000                __bss_start__ = .
 *(.bss)
 .bss           0x000000000042e000       0x30 K:/embedded/General Tools/General Tools/mingw64/bin/../lib/gcc/x86_64-w64-mingw32/6.2.0/../../../../x86_64-w64-mingw32/lib/../lib/crt2.o
 .bss           0x000000000042e030        0x0 K:/embedded/General Tools/General Tools/mingw64/bin/../lib/gcc/x86_64-w64-mingw32/6.2.0/crtbegin.o
 .bss           0x000000000042e030       0x50 DemosModifiedForLowTickRate\recmutex.o
 .bss           0x000000000042e080       0x10 FreeRTOS+Trace Recorder\trcKernelPort.o
                0x000000000042e080                uiInEventGroupSetBitsFromISR
 *fill*         0x000000000042e090       0x10 
 .bss           0x000000000042e0a0      0x420 FreeRTOS+Trace Recorder\trcSnapshotRecorder.o
                0x000000000042e0a0                isPendingContextSwitch
                0x000000000042e0a4                uiTraceTickCount
                0x000000000042e0a8                trace_disable_timestamp
                0x000000000042e0ac                recorder_busy
                0x000000000042e0b0                timestampFrequency
                0x000000000042e0b8                traceErrorMessage
                0x000000000042e0c0                nISRactive
                0x000000000042e0c1                handle_of_last_logged_task
                0x000000000042e0c8                vTraceStopHookPtr
                0x000000000042e0e0                objectHandleStacks
                0x000000000042e488                RecorderDataPtr
 .bss           0x000000000042e4c0        0x0 FreeRTOS+Trace Recorder\trcStreamingRecorder.o
 .bss           0x000000000042e4c0        0x0 FreeRTOS_Source\croutine.o
 .bss           0x000000000042e4c0        0x0 FreeRTOS_Source\event_groups.o
 .bss           0x000000000042e4c0        0x0 FreeRTOS_Source\list.o
 .bss           0x000000000042e4c0      0x140 FreeRTOS_Source\portable\MSVC-MingW\port.o
                0x000000000042e4c0                xInsideInterrupt
 .bss           0x000000000042e600       0x40 FreeRTOS_Source\portable\MemMang\heap_5.o
 .bss           0x000000000042e640        0x0 FreeRTOS_Source\queue.o
 .bss           0x000000000042e640        0x0 FreeRTOS_Source\stream_buffer.o
 .bss           0x000000000042e640      0x2c0 FreeRTOS_Source\tasks.o
                0x000000000042e640                pxCurrentTCB
 .bss           0x000000000042e900      0x3c0 FreeRTOS_Source\timers.o
 .bss           0x000000000042ecc0       0x10 Run-time-stats-utils.o
 *fill*         0x000000000042ecd0       0x10 
 .bss           0x000000000042ece0      0x1c0 Standard_Demo_Tasks\AbortDelay.o
 .bss           0x000000000042eea0       0x20 Standard_Demo_Tasks\BlockQ.o
 .bss           0x000000000042eec0       0x50 Standard_Demo_Tasks\EventGroupsDemo.o
 .bss           0x000000000042ef10       0x40 Standard_Demo_Tasks\GenQTest.o
 .bss           0x000000000042ef50       0x50 Standard_Demo_Tasks\IntSemTest.o
 .bss           0x000000000042efa0       0x30 Standard_Demo_Tasks\MessageBufferAMP.o
 *fill*         0x000000000042efd0       0x10 
 .bss           0x000000000042efe0      0x120 Standard_Demo_Tasks\MessageBufferDemo.o
 .bss           0x000000000042f100       0x10 Standard_Demo_Tasks\PollQ.o
 .bss           0x000000000042f110       0x10 Standard_Demo_Tasks\QPeek.o
 .bss           0x000000000042f120       0x20 Standard_Demo_Tasks\QueueOverwrite.o
 .bss           0x000000000042f140       0x70 Standard_Demo_Tasks\QueueSet.o
 .bss           0x000000000042f1b0       0x20 Standard_Demo_Tasks\QueueSetPolling.o
 *fill*         0x000000000042f1d0       0x10 
 .bss           0x000000000042f1e0      0x840 Standard_Demo_Tasks\StaticAllocation.o
 .bss           0x000000000042fa20      0x120 Standard_Demo_Tasks\StreamBufferDemo.o
 .bss           0x000000000042fb40       0x20 Standard_Demo_Tasks\StreamBufferInterrupt.o
 .bss           0x000000000042fb60       0x40 Standard_Demo_Tasks\TaskNotify.o
 .bss           0x000000000042fba0      0x140 Standard_Demo_Tasks\TimerDemo.o
 .bss           0x000000000042fce0       0x30 Standard_Demo_Tasks\blocktim.o
 *fill*         0x000000000042fd10       0x10 
 .bss           0x000000000042fd20       0x60 Standard_Demo_Tasks\countsem.o
 .bss           0x000000000042fd80       0x10 Standard_Demo_Tasks\death.o
 .bss           0x000000000042fd90       0x30 Standard_Demo_Tasks\dynamic.o
 .bss           0x000000000042fdc0       0x10 Standard_Demo_Tasks\flop.o
 .bss           0x000000000042fdd0       0x10 Standard_Demo_Tasks\integer.o
 .bss           0x000000000042fde0       0x20 Standard_Demo_Tasks\semtest.o
 .bss           0x000000000042fe00       0x40 code_coverage_additions.o
 .bss           0x000000000042fe40    0x107a0 main.o
 .bss           0x00000000004405e0       0x10 main_blinky.o
 .bss           0x00000000004405f0       0x30 main_full.o
 .bss           0x0000000000440620        0x0 main_task1.o
 .bss           0x0000000000440620        0x0 main_task2.o
 .bss           0x0000000000440620        0x0 main_task3.o
 .bss           0x0000000000440620       0x10 main_task4.o
                0x0000000000440620                i
                0x0000000000440624                a
 .bss           0x0000000000440630        0x0 K:/embedded/General Tools/General Tools/mingw64/bin/../lib/gcc/x86_64-w64-mingw32/6.2.0/../../../../x86_64-w64-mingw32/lib/../lib/libwinmm.a(dmces00151.o)
 .bss           0x0000000000440630        0x0 K:/embedded/General Tools/General Tools/mingw64/bin/../lib/gcc/x86_64-w64-mingw32/6.2.0/../../../../x86_64-w64-mingw32/lib/../lib/libwinmm.a(dmces00150.o)
 .bss           0x0000000000440630        0x0 K:/embedded/General Tools/General Tools/mingw64/bin/../lib/gcc/x86_64-w64-mingw32/6.2.0/../../../../x86_64-w64-mingw32/lib/../lib/libwinmm.a(dmces00149.o)
 .bss           0x0000000000440630        0x0 K:/embedded/General Tools/General Tools/mingw64/bin/../lib/gcc/x86_64-w64-mingw32/6.2.0/../../../../x86_64-w64-mingw32/lib/../lib/libwinmm.a(dmceh.o)
 .bss           0x0000000000440630        0x0 K:/embedded/General Tools/General Tools/mingw64/bin/../lib/gcc/x86_64-w64-mingw32/6.2.0/../../../../x86_64-w64-mingw32/lib/../lib/libwinmm.a(dmcet.o)
 .bss           0x0000000000440630        0x0 K:/embedded/General Tools/General Tools/mingw64/bin/../lib/gcc/x86_64-w64-mingw32/6.2.0/../../../../x86_64-w64-mingw32/lib/../lib/libmingw32.a(lib64_libmingw32_a-atonexit.o)
 .bss           0x0000000000440630       0x10 K:/embedded/General Tools/General Tools/mingw64/bin/../lib/gcc/x86_64-w64-mingw32/6.2.0/../../../../x86_64-w64-mingw32/lib/../lib/libmingw32.a(lib64_libmingw32_a-gccmain.o)
 .bss           0x0000000000440640        0x0 K:/embedded/General Tools/General Tools/mingw64/bin/../lib/gcc/x86_64-w64-mingw32/6.2.0/../../../../x86_64-w64-mingw32/lib/../lib/libmingw32.a(lib64_libmingw32_a-natstart.o)
 .bss           0x0000000000440640        0x0 K:/embedded/General Tools/General Tools/mingw64/bin/../lib/gcc/x86_64-w64-mingw32/6.2.0/../../../../x86_64-w64-mingw32/lib/../lib/libmingw32.a(lib64_libmingw32_a-wildcard.o)
 .bss           0x0000000000440640       0x10 K:/embedded/General Tools/General Tools/mingw64/bin/../lib/gcc/x86_64-w64-mingw32/6.2.0/../../../../x86_64-w64-mingw32/lib/../lib/libmingw32.a(lib64_libmingw32_a-charmax.o)
                0x0000000000440640                mingw_initcharmax
 .bss           0x0000000000440650        0x0 K:/embedded/General Tools/General Tools/mingw64/bin/../lib/gcc/x86_64-w64-mingw32/6.2.0/../../../../x86_64-w64-mingw32/lib/../lib/libmingw32.a(lib64_libmingw32_a-dllargv.o)
 *fill*         0x0000000000440650       0x30 
 .bss           0x0000000000440680      0x5c0 K:/embedded/General Tools/General Tools/mingw64/bin/../lib/gcc/x86_64-w64-mingw32/6.2.0/../../../../x86_64-w64-mingw32/lib/../lib/libmingw32.a(lib64_libmingw32_a-gs_support.o)
 .bss           0x0000000000440c40       0x10 K:/embedded/General Tools/General Tools/mingw64/bin/../lib/gcc/x86_64-w64-mingw32/6.2.0/../../../../x86_64-w64-mingw32/lib/../lib/libmingw32.a(lib64_libmingw32_a-_newmode.o)
                0x0000000000440c40                _newmode
 .bss           0x0000000000440c50       0x10 K:/embedded/General Tools/General Tools/mingw64/bin/../lib/gcc/x86_64-w64-mingw32/6.2.0/../../../../x86_64-w64-mingw32/lib/../lib/libmingw32.a(lib64_libmingw32_a-tlssup.o)
                0x0000000000440c50                mingw_initltssuo_force
                0x0000000000440c54                mingw_initltsdyn_force
                0x0000000000440c58                mingw_initltsdrot_force
                0x0000000000440c5c                _tls_index
 .bss           0x0000000000440c60        0x0 K:/embedded/General Tools/General Tools/mingw64/bin/../lib/gcc/x86_64-w64-mingw32/6.2.0/../../../../x86_64-w64-mingw32/lib/../lib/libmingw32.a(lib64_libmingw32_a-cinitexe.o)
 .bss           0x0000000000440c60       0x10 K:/embedded/General Tools/General Tools/mingw64/bin/../lib/gcc/x86_64-w64-mingw32/6.2.0/../../../../x86_64-w64-mingw32/lib/../lib/libmingw32.a(lib64_libmingw32_a-merr.o)
 .bss           0x0000000000440c70        0x0 K:/embedded/General Tools/General Tools/mingw64/bin/../lib/gcc/x86_64-w64-mingw32/6.2.0/../../../../x86_64-w64-mingw32/lib/../lib/libmingw32.a(lib64_libmingw32_a-CRT_fp10.o)
 .bss           0x0000000000440c70       0x10 K:/embedded/General Tools/General Tools/mingw64/bin/../lib/gcc/x86_64-w64-mingw32/6.2.0/../../../../x86_64-w64-mingw32/lib/../lib/libmingw32.a(lib64_libmingw32_a-mingw_helpers.o)
                0x0000000000440c70                mingw_app_type
 .bss           0x0000000000440c80       0x10 K:/embedded/General Tools/General Tools/mingw64/bin/../lib/gcc/x86_64-w64-mingw32/6.2.0/../../../../x86_64-w64-mingw32/lib/../lib/libmingw32.a(lib64_libmingw32_a-pseudo-reloc.o)
 .bss           0x0000000000440c90       0x10 K:/embedded/General Tools/General Tools/mingw64/bin/../lib/gcc/x86_64-w64-mingw32/6.2.0/../../../../x86_64-w64-mingw32/lib/../lib/libmingw32.a(lib64_libmingw32_a-xtxtmode.o)
                0x0000000000440c90                _fmode
 *fill*         0x0000000000440ca0       0x20 
 .bss           0x0000000000440cc0      0x2c0 K:/embedded/General Tools/General Tools/mingw64/bin/../lib/gcc/x86_64-w64-mingw32/6.2.0/../../../../x86_64-w64-mingw32/lib/../lib/libmingw32.a(lib64_libmingw32_a-crt_handler.o)
                0x0000000000440cc0                __mingw_oldexcpt_handler
 .bss           0x0000000000440f80       0x60 K:/embedded/General Tools/General Tools/mingw64/bin/../lib/gcc/x86_64-w64-mingw32/6.2.0/../../../../x86_64-w64-mingw32/lib/../lib/libmingw32.a(lib64_libmingw32_a-tlsthrd.o)
 .bss           0x0000000000440fe0        0x0 K:/embedded/General Tools/General Tools/mingw64/bin/../lib/gcc/x86_64-w64-mingw32/6.2.0/../../../../x86_64-w64-mingw32/lib/../lib/libmingw32.a(lib64_libmingw32_a-tlsmcrt.o)
 .bss           0x0000000000440fe0       0x10 K:/embedded/General Tools/General Tools/mingw64/bin/../lib/gcc/x86_64-w64-mingw32/6.2.0/../../../../x86_64-w64-mingw32/lib/../lib/libmingw32.a(lib64_libmingw32_a-pseudo-reloc-list.o)
 .bss           0x0000000000440ff0        0x0 K:/embedded/General Tools/General Tools/mingw64/bin/../lib/gcc/x86_64-w64-mingw32/6.2.0/../../../../x86_64-w64-mingw32/lib/../lib/libmingw32.a(lib64_libmingw32_a-pesect.o)
 .bss           0x0000000000440ff0        0x0 K:/embedded/General Tools/General Tools/mingw64/bin/../lib/gcc/x86_64-w64-mingw32/6.2.0/libgcc.a(_chkstk_ms.o)
 .bss           0x0000000000440ff0        0x0 K:/embedded/General Tools/General Tools/mingw64/bin/../lib/gcc/x86_64-w64-mingw32/6.2.0/libgcc.a(_ctors.o)
 .bss           0x0000000000440ff0        0x0 K:/embedded/General Tools/General Tools/mingw64/bin/../lib/gcc/x86_64-w64-mingw32/6.2.0/../../../../x86_64-w64-mingw32/lib/../lib/libmingwex.a(lib64_libmingwex_a-mingw_matherr.o)
 .bss           0x0000000000440ff0        0x0 K:/embedded/General Tools/General Tools/mingw64/bin/../lib/gcc/x86_64-w64-mingw32/6.2.0/../../../../x86_64-w64-mingw32/lib/../lib/libmsvcrt.a(dekes01240.o)
 .bss           0x0000000000440ff0        0x0 K:/embedded/General Tools/General Tools/mingw64/bin/../lib/gcc/x86_64-w64-mingw32/6.2.0/../../../../x86_64-w64-mingw32/lib/../lib/libmsvcrt.a(dekes01208.o)
 .bss           0x0000000000440ff0        0x0 K:/embedded/General Tools/General Tools/mingw64/bin/../lib/gcc/x86_64-w64-mingw32/6.2.0/../../../../x86_64-w64-mingw32/lib/../lib/libmsvcrt.a(dekes01205.o)
 .bss           0x0000000000440ff0        0x0 K:/embedded/General Tools/General Tools/mingw64/bin/../lib/gcc/x86_64-w64-mingw32/6.2.0/../../../../x86_64-w64-mingw32/lib/../lib/libmsvcrt.a(dekes01198.o)
 .bss           0x0000000000440ff0        0x0 K:/embedded/General Tools/General Tools/mingw64/bin/../lib/gcc/x86_64-w64-mingw32/6.2.0/../../../../x86_64-w64-mingw32/lib/../lib/libmsvcrt.a(dekes01189.o)
 .bss           0x0000000000440ff0        0x0 K:/embedded/General Tools/General Tools/mingw64/bin/../lib/gcc/x86_64-w64-mingw32/6.2.0/../../../../x86_64-w64-mingw32/lib/../lib/libmsvcrt.a(dekes01184.o)
 .bss           0x0000000000440ff0        0x0 K:/embedded/General Tools/General Tools/mingw64/bin/../lib/gcc/x86_64-w64-mingw32/6.2.0/../../../../x86_64-w64-mingw32/lib/../lib/libmsvcrt.a(dekes01183.o)
 .bss           0x0000000000440ff0        0x0 K:/embedded/General Tools/General Tools/mingw64/bin/../lib/gcc/x86_64-w64-mingw32/6.2.0/../../../../x86_64-w64-mingw32/lib/../lib/libmsvcrt.a(dekes01173.o)
 .bss           0x0000000000440ff0        0x0 K:/embedded/General Tools/General Tools/mingw64/bin/../lib/gcc/x86_64-w64-mingw32/6.2.0/../../../../x86_64-w64-mingw32/lib/../lib/libmsvcrt.a(dekes01167.o)
 .bss           0x0000000000440ff0        0x0 K:/embedded/General Tools/General Tools/mingw64/bin/../lib/gcc/x86_64-w64-mingw32/6.2.0/../../../../x86_64-w64-mingw32/lib/../lib/libmsvcrt.a(dekes01166.o)
 .bss           0x0000000000440ff0        0x0 K:/embedded/General Tools/General Tools/mingw64/bin/../lib/gcc/x86_64-w64-mingw32/6.2.0/../../../../x86_64-w64-mingw32/lib/../lib/libmsvcrt.a(dekes01163.o)
 .bss           0x0000000000440ff0        0x0 K:/embedded/General Tools/General Tools/mingw64/bin/../lib/gcc/x86_64-w64-mingw32/6.2.0/../../../../x86_64-w64-mingw32/lib/../lib/libmsvcrt.a(dekes01156.o)
 .bss           0x0000000000440ff0        0x0 K:/embedded/General Tools/General Tools/mingw64/bin/../lib/gcc/x86_64-w64-mingw32/6.2.0/../../../../x86_64-w64-mingw32/lib/../lib/libmsvcrt.a(dekes01154.o)
 .bss           0x0000000000440ff0        0x0 K:/embedded/General Tools/General Tools/mingw64/bin/../lib/gcc/x86_64-w64-mingw32/6.2.0/../../../../x86_64-w64-mingw32/lib/../lib/libmsvcrt.a(dekes01153.o)
 .bss           0x0000000000440ff0        0x0 K:/embedded/General Tools/General Tools/mingw64/bin/../lib/gcc/x86_64-w64-mingw32/6.2.0/../../../../x86_64-w64-mingw32/lib/../lib/libmsvcrt.a(dekes01146.o)
 .bss           0x0000000000440ff0        0x0 K:/embedded/General Tools/General Tools/mingw64/bin/../lib/gcc/x86_64-w64-mingw32/6.2.0/../../../../x86_64-w64-mingw32/lib/../lib/libmsvcrt.a(dekes01099.o)
 .bss           0x0000000000440ff0        0x0 K:/embedded/General Tools/General Tools/mingw64/bin/../lib/gcc/x86_64-w64-mingw32/6.2.0/../../../../x86_64-w64-mingw32/lib/../lib/libmsvcrt.a(dekes01087.o)
 .bss           0x0000000000440ff0        0x0 K:/embedded/General Tools/General Tools/mingw64/bin/../lib/gcc/x86_64-w64-mingw32/6.2.0/../../../../x86_64-w64-mingw32/lib/../lib/libmsvcrt.a(dekes01080.o)
 .bss           0x0000000000440ff0        0x0 K:/embedded/General Tools/General Tools/mingw64/bin/../lib/gcc/x86_64-w64-mingw32/6.2.0/../../../../x86_64-w64-mingw32/lib/../lib/libmsvcrt.a(dekes01078.o)
 .bss           0x0000000000440ff0        0x0 K:/embedded/General Tools/General Tools/mingw64/bin/../lib/gcc/x86_64-w64-mingw32/6.2.0/../../../../x86_64-w64-mingw32/lib/../lib/libmsvcrt.a(dekes01068.o)
 .bss           0x0000000000440ff0        0x0 K:/embedded/General Tools/General Tools/mingw64/bin/../lib/gcc/x86_64-w64-mingw32/6.2.0/../../../../x86_64-w64-mingw32/lib/../lib/libmsvcrt.a(dekes01065.o)
 .bss           0x0000000000440ff0        0x0 K:/embedded/General Tools/General Tools/mingw64/bin/../lib/gcc/x86_64-w64-mingw32/6.2.0/../../../../x86_64-w64-mingw32/lib/../lib/libmsvcrt.a(dekes01061.o)
 .bss           0x0000000000440ff0        0x0 K:/embedded/General Tools/General Tools/mingw64/bin/../lib/gcc/x86_64-w64-mingw32/6.2.0/../../../../x86_64-w64-mingw32/lib/../lib/libmsvcrt.a(dekes01048.o)
 .bss           0x0000000000440ff0        0x0 K:/embedded/General Tools/General Tools/mingw64/bin/../lib/gcc/x86_64-w64-mingw32/6.2.0/../../../../x86_64-w64-mingw32/lib/../lib/libmsvcrt.a(dekes01028.o)
 .bss           0x0000000000440ff0        0x0 K:/embedded/General Tools/General Tools/mingw64/bin/../lib/gcc/x86_64-w64-mingw32/6.2.0/../../../../x86_64-w64-mingw32/lib/../lib/libmsvcrt.a(dekes00820.o)
 .bss           0x0000000000440ff0        0x0 K:/embedded/General Tools/General Tools/mingw64/bin/../lib/gcc/x86_64-w64-mingw32/6.2.0/../../../../x86_64-w64-mingw32/lib/../lib/libmsvcrt.a(dekes00611.o)
 .bss           0x0000000000440ff0        0x0 K:/embedded/General Tools/General Tools/mingw64/bin/../lib/gcc/x86_64-w64-mingw32/6.2.0/../../../../x86_64-w64-mingw32/lib/../lib/libmsvcrt.a(dekes00438.o)
 .bss           0x0000000000440ff0        0x0 K:/embedded/General Tools/General Tools/mingw64/bin/../lib/gcc/x86_64-w64-mingw32/6.2.0/../../../../x86_64-w64-mingw32/lib/../lib/libmsvcrt.a(dekes00330.o)
 .bss           0x0000000000440ff0        0x0 K:/embedded/General Tools/General Tools/mingw64/bin/../lib/gcc/x86_64-w64-mingw32/6.2.0/../../../../x86_64-w64-mingw32/lib/../lib/libmsvcrt.a(dekes00252.o)
 .bss           0x0000000000440ff0        0x0 K:/embedded/General Tools/General Tools/mingw64/bin/../lib/gcc/x86_64-w64-mingw32/6.2.0/../../../../x86_64-w64-mingw32/lib/../lib/libmsvcrt.a(dekes00141.o)
 .bss           0x0000000000440ff0        0x0 K:/embedded/General Tools/General Tools/mingw64/bin/../lib/gcc/x86_64-w64-mingw32/6.2.0/../../../../x86_64-w64-mingw32/lib/../lib/libmsvcrt.a(dekes00123.o)
 .bss           0x0000000000440ff0        0x0 K:/embedded/General Tools/General Tools/mingw64/bin/../lib/gcc/x86_64-w64-mingw32/6.2.0/../../../../x86_64-w64-mingw32/lib/../lib/libmsvcrt.a(dekes00116.o)
 .bss           0x0000000000440ff0        0x0 K:/embedded/General Tools/General Tools/mingw64/bin/../lib/gcc/x86_64-w64-mingw32/6.2.0/../../../../x86_64-w64-mingw32/lib/../lib/libmsvcrt.a(dekes00099.o)
 .bss           0x0000000000440ff0        0x0 K:/embedded/General Tools/General Tools/mingw64/bin/../lib/gcc/x86_64-w64-mingw32/6.2.0/../../../../x86_64-w64-mingw32/lib/../lib/libmsvcrt.a(dekes00097.o)
 .bss           0x0000000000440ff0        0x0 K:/embedded/General Tools/General Tools/mingw64/bin/../lib/gcc/x86_64-w64-mingw32/6.2.0/../../../../x86_64-w64-mingw32/lib/../lib/libmsvcrt.a(dekes00091.o)
 .bss           0x0000000000440ff0        0x0 K:/embedded/General Tools/General Tools/mingw64/bin/../lib/gcc/x86_64-w64-mingw32/6.2.0/../../../../x86_64-w64-mingw32/lib/../lib/libmsvcrt.a(dekes00083.o)
 .bss           0x0000000000440ff0        0x0 K:/embedded/General Tools/General Tools/mingw64/bin/../lib/gcc/x86_64-w64-mingw32/6.2.0/../../../../x86_64-w64-mingw32/lib/../lib/libmsvcrt.a(dekes00082.o)
 .bss           0x0000000000440ff0        0x0 K:/embedded/General Tools/General Tools/mingw64/bin/../lib/gcc/x86_64-w64-mingw32/6.2.0/../../../../x86_64-w64-mingw32/lib/../lib/libmsvcrt.a(dekes00081.o)
 .bss           0x0000000000440ff0        0x0 K:/embedded/General Tools/General Tools/mingw64/bin/../lib/gcc/x86_64-w64-mingw32/6.2.0/../../../../x86_64-w64-mingw32/lib/../lib/libmsvcrt.a(dekes00078.o)
 .bss           0x0000000000440ff0        0x0 K:/embedded/General Tools/General Tools/mingw64/bin/../lib/gcc/x86_64-w64-mingw32/6.2.0/../../../../x86_64-w64-mingw32/lib/../lib/libmsvcrt.a(dekes00055.o)
 .bss           0x0000000000440ff0       0x10 K:/embedded/General Tools/General Tools/mingw64/bin/../lib/gcc/x86_64-w64-mingw32/6.2.0/../../../../x86_64-w64-mingw32/lib/../lib/libmsvcrt.a(lib64_libmsvcrt_a-invalid_parameter_handler.o)
 .bss           0x0000000000441000        0x0 K:/embedded/General Tools/General Tools/mingw64/bin/../lib/gcc/x86_64-w64-mingw32/6.2.0/../../../../x86_64-w64-mingw32/lib/../lib/libmsvcrt.a(dekeh.o)
 .bss           0x0000000000441000        0x0 K:/embedded/General Tools/General Tools/mingw64/bin/../lib/gcc/x86_64-w64-mingw32/6.2.0/../../../../x86_64-w64-mingw32/lib/../lib/libmsvcrt.a(deket.o)
 .bss           0x0000000000441000        0x0 K:/embedded/General Tools/General Tools/mingw64/bin/../lib/gcc/x86_64-w64-mingw32/6.2.0/../../../../x86_64-w64-mingw32/lib/../lib/libkernel32.a(dmmds01274.o)
 .bss           0x0000000000441000        0x0 K:/embedded/General Tools/General Tools/mingw64/bin/../lib/gcc/x86_64-w64-mingw32/6.2.0/../../../../x86_64-w64-mingw32/lib/../lib/libkernel32.a(dmmds01272.o)
 .bss           0x0000000000441000        0x0 K:/embedded/General Tools/General Tools/mingw64/bin/../lib/gcc/x86_64-w64-mingw32/6.2.0/../../../../x86_64-w64-mingw32/lib/../lib/libkernel32.a(dmmds01266.o)
 .bss           0x0000000000441000        0x0 K:/embedded/General Tools/General Tools/mingw64/bin/../lib/gcc/x86_64-w64-mingw32/6.2.0/../../../../x86_64-w64-mingw32/lib/../lib/libkernel32.a(dmmds01264.o)
 .bss           0x0000000000441000        0x0 K:/embedded/General Tools/General Tools/mingw64/bin/../lib/gcc/x86_64-w64-mingw32/6.2.0/../../../../x86_64-w64-mingw32/lib/../lib/libkernel32.a(dmmds01234.o)
 .bss           0x0000000000441000        0x0 K:/embedded/General Tools/General Tools/mingw64/bin/../lib/gcc/x86_64-w64-mingw32/6.2.0/../../../../x86_64-w64-mingw32/lib/../lib/libkernel32.a(dmmds01221.o)
 .bss           0x0000000000441000        0x0 K:/embedded/General Tools/General Tools/mingw64/bin/../lib/gcc/x86_64-w64-mingw32/6.2.0/../../../../x86_64-w64-mingw32/lib/../lib/libkernel32.a(dmmds01215.o)
 .bss           0x0000000000441000        0x0 K:/embedded/General Tools/General Tools/mingw64/bin/../lib/gcc/x86_64-w64-mingw32/6.2.0/../../../../x86_64-w64-mingw32/lib/../lib/libkernel32.a(dmmds01214.o)
 .bss           0x0000000000441000        0x0 K:/embedded/General Tools/General Tools/mingw64/bin/../lib/gcc/x86_64-w64-mingw32/6.2.0/../../../../x86_64-w64-mingw32/lib/../lib/libkernel32.a(dmmds01208.o)
 .bss           0x0000000000441000        0x0 K:/embedded/General Tools/General Tools/mingw64/bin/../lib/gcc/x86_64-w64-mingw32/6.2.0/../../../../x86_64-w64-mingw32/lib/../lib/libkernel32.a(dmmds01200.o)
 .bss           0x0000000000441000        0x0 K:/embedded/General Tools/General Tools/mingw64/bin/../lib/gcc/x86_64-w64-mingw32/6.2.0/../../../../x86_64-w64-mingw32/lib/../lib/libkernel32.a(dmmds01187.o)
 .bss           0x0000000000441000        0x0 K:/embedded/General Tools/General Tools/mingw64/bin/../lib/gcc/x86_64-w64-mingw32/6.2.0/../../../../x86_64-w64-mingw32/lib/../lib/libkernel32.a(dmmds01175.o)
 .bss           0x0000000000441000        0x0 K:/embedded/General Tools/General Tools/mingw64/bin/../lib/gcc/x86_64-w64-mingw32/6.2.0/../../../../x86_64-w64-mingw32/lib/../lib/libkernel32.a(dmmds01174.o)
 .bss           0x0000000000441000        0x0 K:/embedded/General Tools/General Tools/mingw64/bin/../lib/gcc/x86_64-w64-mingw32/6.2.0/../../../../x86_64-w64-mingw32/lib/../lib/libkernel32.a(dmmds01165.o)
 .bss           0x0000000000441000        0x0 K:/embedded/General Tools/General Tools/mingw64/bin/../lib/gcc/x86_64-w64-mingw32/6.2.0/../../../../x86_64-w64-mingw32/lib/../lib/libkernel32.a(dmmds01146.o)
 .bss           0x0000000000441000        0x0 K:/embedded/General Tools/General Tools/mingw64/bin/../lib/gcc/x86_64-w64-mingw32/6.2.0/../../../../x86_64-w64-mingw32/lib/../lib/libkernel32.a(dmmds01111.o)
 .bss           0x0000000000441000        0x0 K:/embedded/General Tools/General Tools/mingw64/bin/../lib/gcc/x86_64-w64-mingw32/6.2.0/../../../../x86_64-w64-mingw32/lib/../lib/libkernel32.a(dmmds01067.o)
 .bss           0x0000000000441000        0x0 K:/embedded/General Tools/General Tools/mingw64/bin/../lib/gcc/x86_64-w64-mingw32/6.2.0/../../../../x86_64-w64-mingw32/lib/../lib/libkernel32.a(dmmds01044.o)
 .bss           0x0000000000441000        0x0 K:/embedded/General Tools/General Tools/mingw64/bin/../lib/gcc/x86_64-w64-mingw32/6.2.0/../../../../x86_64-w64-mingw32/lib/../lib/libkernel32.a(dmmds01037.o)
 .bss           0x0000000000441000        0x0 K:/embedded/General Tools/General Tools/mingw64/bin/../lib/gcc/x86_64-w64-mingw32/6.2.0/../../../../x86_64-w64-mingw32/lib/../lib/libkernel32.a(dmmds01030.o)
 .bss           0x0000000000441000        0x0 K:/embedded/General Tools/General Tools/mingw64/bin/../lib/gcc/x86_64-w64-mingw32/6.2.0/../../../../x86_64-w64-mingw32/lib/../lib/libkernel32.a(dmmds01029.o)
 .bss           0x0000000000441000        0x0 K:/embedded/General Tools/General Tools/mingw64/bin/../lib/gcc/x86_64-w64-mingw32/6.2.0/../../../../x86_64-w64-mingw32/lib/../lib/libkernel32.a(dmmds01028.o)
 .bss           0x0000000000441000        0x0 K:/embedded/General Tools/General Tools/mingw64/bin/../lib/gcc/x86_64-w64-mingw32/6.2.0/../../../../x86_64-w64-mingw32/lib/../lib/libkernel32.a(dmmds01024.o)
 .bss           0x0000000000441000        0x0 K:/embedded/General Tools/General Tools/mingw64/bin/../lib/gcc/x86_64-w64-mingw32/6.2.0/../../../../x86_64-w64-mingw32/lib/../lib/libkernel32.a(dmmds01003.o)
 .bss           0x0000000000441000        0x0 K:/embedded/General Tools/General Tools/mingw64/bin/../lib/gcc/x86_64-w64-mingw32/6.2.0/../../../../x86_64-w64-mingw32/lib/../lib/libkernel32.a(dmmds00959.o)
 .bss           0x0000000000441000        0x0 K:/embedded/General Tools/General Tools/mingw64/bin/../lib/gcc/x86_64-w64-mingw32/6.2.0/../../../../x86_64-w64-mingw32/lib/../lib/libkernel32.a(dmmds00958.o)
 .bss           0x0000000000441000        0x0 K:/embedded/General Tools/General Tools/mingw64/bin/../lib/gcc/x86_64-w64-mingw32/6.2.0/../../../../x86_64-w64-mingw32/lib/../lib/libkernel32.a(dmmds00844.o)
 .bss           0x0000000000441000        0x0 K:/embedded/General Tools/General Tools/mingw64/bin/../lib/gcc/x86_64-w64-mingw32/6.2.0/../../../../x86_64-w64-mingw32/lib/../lib/libkernel32.a(dmmds00762.o)
 .bss           0x0000000000441000        0x0 K:/embedded/General Tools/General Tools/mingw64/bin/../lib/gcc/x86_64-w64-mingw32/6.2.0/../../../../x86_64-w64-mingw32/lib/../lib/libkernel32.a(dmmds00678.o)
 .bss           0x0000000000441000        0x0 K:/embedded/General Tools/General Tools/mingw64/bin/../lib/gcc/x86_64-w64-mingw32/6.2.0/../../../../x86_64-w64-mingw32/lib/../lib/libkernel32.a(dmmds00665.o)
 .bss           0x0000000000441000        0x0 K:/embedded/General Tools/General Tools/mingw64/bin/../lib/gcc/x86_64-w64-mingw32/6.2.0/../../../../x86_64-w64-mingw32/lib/../lib/libkernel32.a(dmmds00651.o)
 .bss           0x0000000000441000        0x0 K:/embedded/General Tools/General Tools/mingw64/bin/../lib/gcc/x86_64-w64-mingw32/6.2.0/../../../../x86_64-w64-mingw32/lib/../lib/libkernel32.a(dmmds00645.o)
 .bss           0x0000000000441000        0x0 K:/embedded/General Tools/General Tools/mingw64/bin/../lib/gcc/x86_64-w64-mingw32/6.2.0/../../../../x86_64-w64-mingw32/lib/../lib/libkernel32.a(dmmds00628.o)
 .bss           0x0000000000441000        0x0 K:/embedded/General Tools/General Tools/mingw64/bin/../lib/gcc/x86_64-w64-mingw32/6.2.0/../../../../x86_64-w64-mingw32/lib/../lib/libkernel32.a(dmmds00599.o)
 .bss           0x0000000000441000        0x0 K:/embedded/General Tools/General Tools/mingw64/bin/../lib/gcc/x86_64-w64-mingw32/6.2.0/../../../../x86_64-w64-mingw32/lib/../lib/libkernel32.a(dmmds00549.o)
 .bss           0x0000000000441000        0x0 K:/embedded/General Tools/General Tools/mingw64/bin/../lib/gcc/x86_64-w64-mingw32/6.2.0/../../../../x86_64-w64-mingw32/lib/../lib/libkernel32.a(dmmds00529.o)
 .bss           0x0000000000441000        0x0 K:/embedded/General Tools/General Tools/mingw64/bin/../lib/gcc/x86_64-w64-mingw32/6.2.0/../../../../x86_64-w64-mingw32/lib/../lib/libkernel32.a(dmmds00467.o)
 .bss           0x0000000000441000        0x0 K:/embedded/General Tools/General Tools/mingw64/bin/../lib/gcc/x86_64-w64-mingw32/6.2.0/../../../../x86_64-w64-mingw32/lib/../lib/libkernel32.a(dmmds00466.o)
 .bss           0x0000000000441000        0x0 K:/embedded/General Tools/General Tools/mingw64/bin/../lib/gcc/x86_64-w64-mingw32/6.2.0/../../../../x86_64-w64-mingw32/lib/../lib/libkernel32.a(dmmds00463.o)
 .bss           0x0000000000441000        0x0 K:/embedded/General Tools/General Tools/mingw64/bin/../lib/gcc/x86_64-w64-mingw32/6.2.0/../../../../x86_64-w64-mingw32/lib/../lib/libkernel32.a(dmmds00462.o)
 .bss           0x0000000000441000        0x0 K:/embedded/General Tools/General Tools/mingw64/bin/../lib/gcc/x86_64-w64-mingw32/6.2.0/../../../../x86_64-w64-mingw32/lib/../lib/libkernel32.a(dmmds00295.o)
 .bss           0x0000000000441000        0x0 K:/embedded/General Tools/General Tools/mingw64/bin/../lib/gcc/x86_64-w64-mingw32/6.2.0/../../../../x86_64-w64-mingw32/lib/../lib/libkernel32.a(dmmds00249.o)
 .bss           0x0000000000441000        0x0 K:/embedded/General Tools/General Tools/mingw64/bin/../lib/gcc/x86_64-w64-mingw32/6.2.0/../../../../x86_64-w64-mingw32/lib/../lib/libkernel32.a(dmmds00216.o)
 .bss           0x0000000000441000        0x0 K:/embedded/General Tools/General Tools/mingw64/bin/../lib/gcc/x86_64-w64-mingw32/6.2.0/../../../../x86_64-w64-mingw32/lib/../lib/libkernel32.a(dmmds00186.o)
 .bss           0x0000000000441000        0x0 K:/embedded/General Tools/General Tools/mingw64/bin/../lib/gcc/x86_64-w64-mingw32/6.2.0/../../../../x86_64-w64-mingw32/lib/../lib/libkernel32.a(dmmds00160.o)
 .bss           0x0000000000441000        0x0 K:/embedded/General Tools/General Tools/mingw64/bin/../lib/gcc/x86_64-w64-mingw32/6.2.0/../../../../x86_64-w64-mingw32/lib/../lib/libkernel32.a(dmmds00134.o)
 .bss           0x0000000000441000        0x0 K:/embedded/General Tools/General Tools/mingw64/bin/../lib/gcc/x86_64-w64-mingw32/6.2.0/../../../../x86_64-w64-mingw32/lib/../lib/libkernel32.a(dmmds00085.o)
 .bss           0x0000000000441000        0x0 K:/embedded/General Tools/General Tools/mingw64/bin/../lib/gcc/x86_64-w64-mingw32/6.2.0/../../../../x86_64-w64-mingw32/lib/../lib/libkernel32.a(dmmdh.o)
 .bss           0x0000000000441000        0x0 K:/embedded/General Tools/General Tools/mingw64/bin/../lib/gcc/x86_64-w64-mingw32/6.2.0/../../../../x86_64-w64-mingw32/lib/../lib/libkernel32.a(dmmdt.o)
 .bss           0x0000000000441000        0x0 K:/embedded/General Tools/General Tools/mingw64/bin/../lib/gcc/x86_64-w64-mingw32/6.2.0/crtend.o
 *(COMMON)
 COMMON         0x0000000000441000       0x10 K:/embedded/General Tools/General Tools/mingw64/bin/../lib/gcc/x86_64-w64-mingw32/6.2.0/../../../../x86_64-w64-mingw32/lib/../lib/crt2.o
                0x0000000000441000                __mingw_winmain_lpCmdLine
                0x0000000000441008                __mingw_winmain_hInstance
 *fill*         0x0000000000441010       0x10 
 COMMON         0x0000000000441020    0x1388c FreeRTOS+Trace Recorder\trcSnapshotRecorder.o
                0x0000000000441020                RecorderData
                0x00000000004548a8                init_hwtc_count
 *fill*         0x00000000004548ac       0x14 
 COMMON         0x00000000004548c0      0x140 FreeRTOS_Source\queue.o
                0x00000000004548c0                xQueueRegistry
 COMMON         0x0000000000454a00       0x18 Standard_Demo_Tasks\QPeek.o
                0x0000000000454a00                xHighPriorityTask
                0x0000000000454a08                xMediumPriorityTask
                0x0000000000454a10                xHighestPriorityTask
 COMMON         0x0000000000454a18       0x10 Standard_Demo_Tasks\QueueSet.o
                0x0000000000454a18                xQueueSetSendingTask
                0x0000000000454a20                xQueueSetReceivingTask
 COMMON         0x0000000000454a28        0x8 Standard_Demo_Tasks\death.o
                0x0000000000454a28                xCreatedTask
 COMMON         0x0000000000454a30        0x8 Standard_Demo_Tasks\dynamic.o
                0x0000000000454a30                xSuspendedTestQueue
 *fill*         0x0000000000454a38        0x8 
 COMMON         0x0000000000454a40      0x460 main.o
                0x0000000000454a40                uxTimerTaskStack
 COMMON         0x0000000000454ea0       0x10 K:/embedded/General Tools/General Tools/mingw64/bin/../lib/gcc/x86_64-w64-mingw32/6.2.0/../../../../x86_64-w64-mingw32/lib/../lib/libmingw32.a(lib64_libmingw32_a-atonexit.o)
                0x0000000000454ea0                __onexitbegin
                0x0000000000454ea8                __onexitend
 COMMON         0x0000000000454eb0       0x10 K:/embedded/General Tools/General Tools/mingw64/bin/../lib/gcc/x86_64-w64-mingw32/6.2.0/../../../../x86_64-w64-mingw32/lib/../lib/libmingw32.a(lib64_libmingw32_a-natstart.o)
                0x0000000000454eb0                __native_startup_state
                0x0000000000454eb8                __native_startup_lock
 COMMON         0x0000000000454ec0       0x20 K:/embedded/General Tools/General Tools/mingw64/bin/../lib/gcc/x86_64-w64-mingw32/6.2.0/libgcc.a(_ctors.o)
                0x0000000000454ee0                __bss_end__ = .

.edata
 *(.edata)

/DISCARD/
 *(.debug$S)
 *(.debug$T)
 *(.debug$F)
 *(.drectve)
 *(.note.GNU-stack)
 *(.gnu.lto_*)

.idata          0x0000000000455000      0xe00
 SORT(*)(.idata$2)
 .idata$2       0x0000000000455000       0x14 K:/embedded/General Tools/General Tools/mingw64/bin/../lib/gcc/x86_64-w64-mingw32/6.2.0/../../../../x86_64-w64-mingw32/lib/../lib/libkernel32.a(dmmdh.o)
                0x0000000000455000                _head_lib64_libkernel32_a
 .idata$2       0x0000000000455014       0x14 K:/embedded/General Tools/General Tools/mingw64/bin/../lib/gcc/x86_64-w64-mingw32/6.2.0/../../../../x86_64-w64-mingw32/lib/../lib/libmsvcrt.a(dekeh.o)
                0x0000000000455014                _head_lib64_libmsvcrt_a
 .idata$2       0x0000000000455028       0x14 K:/embedded/General Tools/General Tools/mingw64/bin/../lib/gcc/x86_64-w64-mingw32/6.2.0/../../../../x86_64-w64-mingw32/lib/../lib/libwinmm.a(dmceh.o)
                0x0000000000455028                _head_lib64_libwinmm_a
 SORT(*)(.idata$3)
                0x000000000045503c        0x4 LONG 0x0
                0x0000000000455040        0x4 LONG 0x0
                0x0000000000455044        0x4 LONG 0x0
                0x0000000000455048        0x4 LONG 0x0
                0x000000000045504c        0x4 LONG 0x0
 SORT(*)(.idata$4)
 .idata$4       0x0000000000455050        0x0 K:/embedded/General Tools/General Tools/mingw64/bin/../lib/gcc/x86_64-w64-mingw32/6.2.0/../../../../x86_64-w64-mingw32/lib/../lib/libkernel32.a(dmmdh.o)
 .idata$4       0x0000000000455050        0x8 K:/embedded/General Tools/General Tools/mingw64/bin/../lib/gcc/x86_64-w64-mingw32/6.2.0/../../../../x86_64-w64-mingw32/lib/../lib/libkernel32.a(dmmds00085.o)
 .idata$4       0x0000000000455058        0x8 K:/embedded/General Tools/General Tools/mingw64/bin/../lib/gcc/x86_64-w64-mingw32/6.2.0/../../../../x86_64-w64-mingw32/lib/../lib/libkernel32.a(dmmds00134.o)
 .idata$4       0x0000000000455060        0x8 K:/embedded/General Tools/General Tools/mingw64/bin/../lib/gcc/x86_64-w64-mingw32/6.2.0/../../../../x86_64-w64-mingw32/lib/../lib/libkernel32.a(dmmds00160.o)
 .idata$4       0x0000000000455068        0x8 K:/embedded/General Tools/General Tools/mingw64/bin/../lib/gcc/x86_64-w64-mingw32/6.2.0/../../../../x86_64-w64-mingw32/lib/../lib/libkernel32.a(dmmds00186.o)
 .idata$4       0x0000000000455070        0x8 K:/embedded/General Tools/General Tools/mingw64/bin/../lib/gcc/x86_64-w64-mingw32/6.2.0/../../../../x86_64-w64-mingw32/lib/../lib/libkernel32.a(dmmds00216.o)
 .idata$4       0x0000000000455078        0x8 K:/embedded/General Tools/General Tools/mingw64/bin/../lib/gcc/x86_64-w64-mingw32/6.2.0/../../../../x86_64-w64-mingw32/lib/../lib/libkernel32.a(dmmds00249.o)
 .idata$4       0x0000000000455080        0x8 K:/embedded/General Tools/General Tools/mingw64/bin/../lib/gcc/x86_64-w64-mingw32/6.2.0/../../../../x86_64-w64-mingw32/lib/../lib/libkernel32.a(dmmds00295.o)
 .idata$4       0x0000000000455088        0x8 K:/embedded/General Tools/General Tools/mingw64/bin/../lib/gcc/x86_64-w64-mingw32/6.2.0/../../../../x86_64-w64-mingw32/lib/../lib/libkernel32.a(dmmds00462.o)
 .idata$4       0x0000000000455090        0x8 K:/embedded/General Tools/General Tools/mingw64/bin/../lib/gcc/x86_64-w64-mingw32/6.2.0/../../../../x86_64-w64-mingw32/lib/../lib/libkernel32.a(dmmds00463.o)
 .idata$4       0x0000000000455098        0x8 K:/embedded/General Tools/General Tools/mingw64/bin/../lib/gcc/x86_64-w64-mingw32/6.2.0/../../../../x86_64-w64-mingw32/lib/../lib/libkernel32.a(dmmds00466.o)
 .idata$4       0x00000000004550a0        0x8 K:/embedded/General Tools/General Tools/mingw64/bin/../lib/gcc/x86_64-w64-mingw32/6.2.0/../../../../x86_64-w64-mingw32/lib/../lib/libkernel32.a(dmmds00467.o)
 .idata$4       0x00000000004550a8        0x8 K:/embedded/General Tools/General Tools/mingw64/bin/../lib/gcc/x86_64-w64-mingw32/6.2.0/../../../../x86_64-w64-mingw32/lib/../lib/libkernel32.a(dmmds00529.o)
 .idata$4       0x00000000004550b0        0x8 K:/embedded/General Tools/General Tools/mingw64/bin/../lib/gcc/x86_64-w64-mingw32/6.2.0/../../../../x86_64-w64-mingw32/lib/../lib/libkernel32.a(dmmds00549.o)
 .idata$4       0x00000000004550b8        0x8 K:/embedded/General Tools/General Tools/mingw64/bin/../lib/gcc/x86_64-w64-mingw32/6.2.0/../../../../x86_64-w64-mingw32/lib/../lib/libkernel32.a(dmmds00599.o)
 .idata$4       0x00000000004550c0        0x8 K:/embedded/General Tools/General Tools/mingw64/bin/../lib/gcc/x86_64-w64-mingw32/6.2.0/../../../../x86_64-w64-mingw32/lib/../lib/libkernel32.a(dmmds00628.o)
 .idata$4       0x00000000004550c8        0x8 K:/embedded/General Tools/General Tools/mingw64/bin/../lib/gcc/x86_64-w64-mingw32/6.2.0/../../../../x86_64-w64-mingw32/lib/../lib/libkernel32.a(dmmds00645.o)
 .idata$4       0x00000000004550d0        0x8 K:/embedded/General Tools/General Tools/mingw64/bin/../lib/gcc/x86_64-w64-mingw32/6.2.0/../../../../x86_64-w64-mingw32/lib/../lib/libkernel32.a(dmmds00651.o)
 .idata$4       0x00000000004550d8        0x8 K:/embedded/General Tools/General Tools/mingw64/bin/../lib/gcc/x86_64-w64-mingw32/6.2.0/../../../../x86_64-w64-mingw32/lib/../lib/libkernel32.a(dmmds00665.o)
 .idata$4       0x00000000004550e0        0x8 K:/embedded/General Tools/General Tools/mingw64/bin/../lib/gcc/x86_64-w64-mingw32/6.2.0/../../../../x86_64-w64-mingw32/lib/../lib/libkernel32.a(dmmds00678.o)
 .idata$4       0x00000000004550e8        0x8 K:/embedded/General Tools/General Tools/mingw64/bin/../lib/gcc/x86_64-w64-mingw32/6.2.0/../../../../x86_64-w64-mingw32/lib/../lib/libkernel32.a(dmmds00762.o)
 .idata$4       0x00000000004550f0        0x8 K:/embedded/General Tools/General Tools/mingw64/bin/../lib/gcc/x86_64-w64-mingw32/6.2.0/../../../../x86_64-w64-mingw32/lib/../lib/libkernel32.a(dmmds00844.o)
 .idata$4       0x00000000004550f8        0x8 K:/embedded/General Tools/General Tools/mingw64/bin/../lib/gcc/x86_64-w64-mingw32/6.2.0/../../../../x86_64-w64-mingw32/lib/../lib/libkernel32.a(dmmds00958.o)
 .idata$4       0x0000000000455100        0x8 K:/embedded/General Tools/General Tools/mingw64/bin/../lib/gcc/x86_64-w64-mingw32/6.2.0/../../../../x86_64-w64-mingw32/lib/../lib/libkernel32.a(dmmds00959.o)
 .idata$4       0x0000000000455108        0x8 K:/embedded/General Tools/General Tools/mingw64/bin/../lib/gcc/x86_64-w64-mingw32/6.2.0/../../../../x86_64-w64-mingw32/lib/../lib/libkernel32.a(dmmds01003.o)
 .idata$4       0x0000000000455110        0x8 K:/embedded/General Tools/General Tools/mingw64/bin/../lib/gcc/x86_64-w64-mingw32/6.2.0/../../../../x86_64-w64-mingw32/lib/../lib/libkernel32.a(dmmds01024.o)
 .idata$4       0x0000000000455118        0x8 K:/embedded/General Tools/General Tools/mingw64/bin/../lib/gcc/x86_64-w64-mingw32/6.2.0/../../../../x86_64-w64-mingw32/lib/../lib/libkernel32.a(dmmds01028.o)
 .idata$4       0x0000000000455120        0x8 K:/embedded/General Tools/General Tools/mingw64/bin/../lib/gcc/x86_64-w64-mingw32/6.2.0/../../../../x86_64-w64-mingw32/lib/../lib/libkernel32.a(dmmds01029.o)
 .idata$4       0x0000000000455128        0x8 K:/embedded/General Tools/General Tools/mingw64/bin/../lib/gcc/x86_64-w64-mingw32/6.2.0/../../../../x86_64-w64-mingw32/lib/../lib/libkernel32.a(dmmds01030.o)
 .idata$4       0x0000000000455130        0x8 K:/embedded/General Tools/General Tools/mingw64/bin/../lib/gcc/x86_64-w64-mingw32/6.2.0/../../../../x86_64-w64-mingw32/lib/../lib/libkernel32.a(dmmds01037.o)
 .idata$4       0x0000000000455138        0x8 K:/embedded/General Tools/General Tools/mingw64/bin/../lib/gcc/x86_64-w64-mingw32/6.2.0/../../../../x86_64-w64-mingw32/lib/../lib/libkernel32.a(dmmds01044.o)
 .idata$4       0x0000000000455140        0x8 K:/embedded/General Tools/General Tools/mingw64/bin/../lib/gcc/x86_64-w64-mingw32/6.2.0/../../../../x86_64-w64-mingw32/lib/../lib/libkernel32.a(dmmds01067.o)
 .idata$4       0x0000000000455148        0x8 K:/embedded/General Tools/General Tools/mingw64/bin/../lib/gcc/x86_64-w64-mingw32/6.2.0/../../../../x86_64-w64-mingw32/lib/../lib/libkernel32.a(dmmds01111.o)
 .idata$4       0x0000000000455150        0x8 K:/embedded/General Tools/General Tools/mingw64/bin/../lib/gcc/x86_64-w64-mingw32/6.2.0/../../../../x86_64-w64-mingw32/lib/../lib/libkernel32.a(dmmds01146.o)
 .idata$4       0x0000000000455158        0x8 K:/embedded/General Tools/General Tools/mingw64/bin/../lib/gcc/x86_64-w64-mingw32/6.2.0/../../../../x86_64-w64-mingw32/lib/../lib/libkernel32.a(dmmds01165.o)
 .idata$4       0x0000000000455160        0x8 K:/embedded/General Tools/General Tools/mingw64/bin/../lib/gcc/x86_64-w64-mingw32/6.2.0/../../../../x86_64-w64-mingw32/lib/../lib/libkernel32.a(dmmds01174.o)
 .idata$4       0x0000000000455168        0x8 K:/embedded/General Tools/General Tools/mingw64/bin/../lib/gcc/x86_64-w64-mingw32/6.2.0/../../../../x86_64-w64-mingw32/lib/../lib/libkernel32.a(dmmds01175.o)
 .idata$4       0x0000000000455170        0x8 K:/embedded/General Tools/General Tools/mingw64/bin/../lib/gcc/x86_64-w64-mingw32/6.2.0/../../../../x86_64-w64-mingw32/lib/../lib/libkernel32.a(dmmds01187.o)
 .idata$4       0x0000000000455178        0x8 K:/embedded/General Tools/General Tools/mingw64/bin/../lib/gcc/x86_64-w64-mingw32/6.2.0/../../../../x86_64-w64-mingw32/lib/../lib/libkernel32.a(dmmds01200.o)
 .idata$4       0x0000000000455180        0x8 K:/embedded/General Tools/General Tools/mingw64/bin/../lib/gcc/x86_64-w64-mingw32/6.2.0/../../../../x86_64-w64-mingw32/lib/../lib/libkernel32.a(dmmds01208.o)
 .idata$4       0x0000000000455188        0x8 K:/embedded/General Tools/General Tools/mingw64/bin/../lib/gcc/x86_64-w64-mingw32/6.2.0/../../../../x86_64-w64-mingw32/lib/../lib/libkernel32.a(dmmds01214.o)
 .idata$4       0x0000000000455190        0x8 K:/embedded/General Tools/General Tools/mingw64/bin/../lib/gcc/x86_64-w64-mingw32/6.2.0/../../../../x86_64-w64-mingw32/lib/../lib/libkernel32.a(dmmds01215.o)
 .idata$4       0x0000000000455198        0x8 K:/embedded/General Tools/General Tools/mingw64/bin/../lib/gcc/x86_64-w64-mingw32/6.2.0/../../../../x86_64-w64-mingw32/lib/../lib/libkernel32.a(dmmds01221.o)
 .idata$4       0x00000000004551a0        0x8 K:/embedded/General Tools/General Tools/mingw64/bin/../lib/gcc/x86_64-w64-mingw32/6.2.0/../../../../x86_64-w64-mingw32/lib/../lib/libkernel32.a(dmmds01234.o)
 .idata$4       0x00000000004551a8        0x8 K:/embedded/General Tools/General Tools/mingw64/bin/../lib/gcc/x86_64-w64-mingw32/6.2.0/../../../../x86_64-w64-mingw32/lib/../lib/libkernel32.a(dmmds01264.o)
 .idata$4       0x00000000004551b0        0x8 K:/embedded/General Tools/General Tools/mingw64/bin/../lib/gcc/x86_64-w64-mingw32/6.2.0/../../../../x86_64-w64-mingw32/lib/../lib/libkernel32.a(dmmds01266.o)
 .idata$4       0x00000000004551b8        0x8 K:/embedded/General Tools/General Tools/mingw64/bin/../lib/gcc/x86_64-w64-mingw32/6.2.0/../../../../x86_64-w64-mingw32/lib/../lib/libkernel32.a(dmmds01272.o)
 .idata$4       0x00000000004551c0        0x8 K:/embedded/General Tools/General Tools/mingw64/bin/../lib/gcc/x86_64-w64-mingw32/6.2.0/../../../../x86_64-w64-mingw32/lib/../lib/libkernel32.a(dmmds01274.o)
 .idata$4       0x00000000004551c8        0x8 K:/embedded/General Tools/General Tools/mingw64/bin/../lib/gcc/x86_64-w64-mingw32/6.2.0/../../../../x86_64-w64-mingw32/lib/../lib/libkernel32.a(dmmdt.o)
 .idata$4       0x00000000004551d0        0x0 K:/embedded/General Tools/General Tools/mingw64/bin/../lib/gcc/x86_64-w64-mingw32/6.2.0/../../../../x86_64-w64-mingw32/lib/../lib/libmsvcrt.a(dekeh.o)
 .idata$4       0x00000000004551d0        0x8 K:/embedded/General Tools/General Tools/mingw64/bin/../lib/gcc/x86_64-w64-mingw32/6.2.0/../../../../x86_64-w64-mingw32/lib/../lib/libmsvcrt.a(dekes00055.o)
 .idata$4       0x00000000004551d8        0x8 K:/embedded/General Tools/General Tools/mingw64/bin/../lib/gcc/x86_64-w64-mingw32/6.2.0/../../../../x86_64-w64-mingw32/lib/../lib/libmsvcrt.a(dekes00078.o)
 .idata$4       0x00000000004551e0        0x8 K:/embedded/General Tools/General Tools/mingw64/bin/../lib/gcc/x86_64-w64-mingw32/6.2.0/../../../../x86_64-w64-mingw32/lib/../lib/libmsvcrt.a(dekes00081.o)
 .idata$4       0x00000000004551e8        0x8 K:/embedded/General Tools/General Tools/mingw64/bin/../lib/gcc/x86_64-w64-mingw32/6.2.0/../../../../x86_64-w64-mingw32/lib/../lib/libmsvcrt.a(dekes00082.o)
 .idata$4       0x00000000004551f0        0x8 K:/embedded/General Tools/General Tools/mingw64/bin/../lib/gcc/x86_64-w64-mingw32/6.2.0/../../../../x86_64-w64-mingw32/lib/../lib/libmsvcrt.a(dekes00083.o)
 .idata$4       0x00000000004551f8        0x8 K:/embedded/General Tools/General Tools/mingw64/bin/../lib/gcc/x86_64-w64-mingw32/6.2.0/../../../../x86_64-w64-mingw32/lib/../lib/libmsvcrt.a(dekes00091.o)
 .idata$4       0x0000000000455200        0x8 K:/embedded/General Tools/General Tools/mingw64/bin/../lib/gcc/x86_64-w64-mingw32/6.2.0/../../../../x86_64-w64-mingw32/lib/../lib/libmsvcrt.a(dekes00097.o)
 .idata$4       0x0000000000455208        0x8 K:/embedded/General Tools/General Tools/mingw64/bin/../lib/gcc/x86_64-w64-mingw32/6.2.0/../../../../x86_64-w64-mingw32/lib/../lib/libmsvcrt.a(dekes00099.o)
 .idata$4       0x0000000000455210        0x8 K:/embedded/General Tools/General Tools/mingw64/bin/../lib/gcc/x86_64-w64-mingw32/6.2.0/../../../../x86_64-w64-mingw32/lib/../lib/libmsvcrt.a(dekes00116.o)
 .idata$4       0x0000000000455218        0x8 K:/embedded/General Tools/General Tools/mingw64/bin/../lib/gcc/x86_64-w64-mingw32/6.2.0/../../../../x86_64-w64-mingw32/lib/../lib/libmsvcrt.a(dekes00123.o)
 .idata$4       0x0000000000455220        0x8 K:/embedded/General Tools/General Tools/mingw64/bin/../lib/gcc/x86_64-w64-mingw32/6.2.0/../../../../x86_64-w64-mingw32/lib/../lib/libmsvcrt.a(dekes00141.o)
 .idata$4       0x0000000000455228        0x8 K:/embedded/General Tools/General Tools/mingw64/bin/../lib/gcc/x86_64-w64-mingw32/6.2.0/../../../../x86_64-w64-mingw32/lib/../lib/libmsvcrt.a(dekes00252.o)
 .idata$4       0x0000000000455230        0x8 K:/embedded/General Tools/General Tools/mingw64/bin/../lib/gcc/x86_64-w64-mingw32/6.2.0/../../../../x86_64-w64-mingw32/lib/../lib/libmsvcrt.a(dekes00330.o)
 .idata$4       0x0000000000455238        0x8 K:/embedded/General Tools/General Tools/mingw64/bin/../lib/gcc/x86_64-w64-mingw32/6.2.0/../../../../x86_64-w64-mingw32/lib/../lib/libmsvcrt.a(dekes00438.o)
 .idata$4       0x0000000000455240        0x8 K:/embedded/General Tools/General Tools/mingw64/bin/../lib/gcc/x86_64-w64-mingw32/6.2.0/../../../../x86_64-w64-mingw32/lib/../lib/libmsvcrt.a(dekes00611.o)
 .idata$4       0x0000000000455248        0x8 K:/embedded/General Tools/General Tools/mingw64/bin/../lib/gcc/x86_64-w64-mingw32/6.2.0/../../../../x86_64-w64-mingw32/lib/../lib/libmsvcrt.a(dekes00820.o)
 .idata$4       0x0000000000455250        0x8 K:/embedded/General Tools/General Tools/mingw64/bin/../lib/gcc/x86_64-w64-mingw32/6.2.0/../../../../x86_64-w64-mingw32/lib/../lib/libmsvcrt.a(dekes01028.o)
 .idata$4       0x0000000000455258        0x8 K:/embedded/General Tools/General Tools/mingw64/bin/../lib/gcc/x86_64-w64-mingw32/6.2.0/../../../../x86_64-w64-mingw32/lib/../lib/libmsvcrt.a(dekes01048.o)
 .idata$4       0x0000000000455260        0x8 K:/embedded/General Tools/General Tools/mingw64/bin/../lib/gcc/x86_64-w64-mingw32/6.2.0/../../../../x86_64-w64-mingw32/lib/../lib/libmsvcrt.a(dekes01061.o)
 .idata$4       0x0000000000455268        0x8 K:/embedded/General Tools/General Tools/mingw64/bin/../lib/gcc/x86_64-w64-mingw32/6.2.0/../../../../x86_64-w64-mingw32/lib/../lib/libmsvcrt.a(dekes01065.o)
 .idata$4       0x0000000000455270        0x8 K:/embedded/General Tools/General Tools/mingw64/bin/../lib/gcc/x86_64-w64-mingw32/6.2.0/../../../../x86_64-w64-mingw32/lib/../lib/libmsvcrt.a(dekes01068.o)
 .idata$4       0x0000000000455278        0x8 K:/embedded/General Tools/General Tools/mingw64/bin/../lib/gcc/x86_64-w64-mingw32/6.2.0/../../../../x86_64-w64-mingw32/lib/../lib/libmsvcrt.a(dekes01078.o)
 .idata$4       0x0000000000455280        0x8 K:/embedded/General Tools/General Tools/mingw64/bin/../lib/gcc/x86_64-w64-mingw32/6.2.0/../../../../x86_64-w64-mingw32/lib/../lib/libmsvcrt.a(dekes01080.o)
 .idata$4       0x0000000000455288        0x8 K:/embedded/General Tools/General Tools/mingw64/bin/../lib/gcc/x86_64-w64-mingw32/6.2.0/../../../../x86_64-w64-mingw32/lib/../lib/libmsvcrt.a(dekes01087.o)
 .idata$4       0x0000000000455290        0x8 K:/embedded/General Tools/General Tools/mingw64/bin/../lib/gcc/x86_64-w64-mingw32/6.2.0/../../../../x86_64-w64-mingw32/lib/../lib/libmsvcrt.a(dekes01099.o)
 .idata$4       0x0000000000455298        0x8 K:/embedded/General Tools/General Tools/mingw64/bin/../lib/gcc/x86_64-w64-mingw32/6.2.0/../../../../x86_64-w64-mingw32/lib/../lib/libmsvcrt.a(dekes01146.o)
 .idata$4       0x00000000004552a0        0x8 K:/embedded/General Tools/General Tools/mingw64/bin/../lib/gcc/x86_64-w64-mingw32/6.2.0/../../../../x86_64-w64-mingw32/lib/../lib/libmsvcrt.a(dekes01153.o)
 .idata$4       0x00000000004552a8        0x8 K:/embedded/General Tools/General Tools/mingw64/bin/../lib/gcc/x86_64-w64-mingw32/6.2.0/../../../../x86_64-w64-mingw32/lib/../lib/libmsvcrt.a(dekes01154.o)
 .idata$4       0x00000000004552b0        0x8 K:/embedded/General Tools/General Tools/mingw64/bin/../lib/gcc/x86_64-w64-mingw32/6.2.0/../../../../x86_64-w64-mingw32/lib/../lib/libmsvcrt.a(dekes01156.o)
 .idata$4       0x00000000004552b8        0x8 K:/embedded/General Tools/General Tools/mingw64/bin/../lib/gcc/x86_64-w64-mingw32/6.2.0/../../../../x86_64-w64-mingw32/lib/../lib/libmsvcrt.a(dekes01163.o)
 .idata$4       0x00000000004552c0        0x8 K:/embedded/General Tools/General Tools/mingw64/bin/../lib/gcc/x86_64-w64-mingw32/6.2.0/../../../../x86_64-w64-mingw32/lib/../lib/libmsvcrt.a(dekes01166.o)
 .idata$4       0x00000000004552c8        0x8 K:/embedded/General Tools/General Tools/mingw64/bin/../lib/gcc/x86_64-w64-mingw32/6.2.0/../../../../x86_64-w64-mingw32/lib/../lib/libmsvcrt.a(dekes01167.o)
 .idata$4       0x00000000004552d0        0x8 K:/embedded/General Tools/General Tools/mingw64/bin/../lib/gcc/x86_64-w64-mingw32/6.2.0/../../../../x86_64-w64-mingw32/lib/../lib/libmsvcrt.a(dekes01173.o)
 .idata$4       0x00000000004552d8        0x8 K:/embedded/General Tools/General Tools/mingw64/bin/../lib/gcc/x86_64-w64-mingw32/6.2.0/../../../../x86_64-w64-mingw32/lib/../lib/libmsvcrt.a(dekes01183.o)
 .idata$4       0x00000000004552e0        0x8 K:/embedded/General Tools/General Tools/mingw64/bin/../lib/gcc/x86_64-w64-mingw32/6.2.0/../../../../x86_64-w64-mingw32/lib/../lib/libmsvcrt.a(dekes01184.o)
 .idata$4       0x00000000004552e8        0x8 K:/embedded/General Tools/General Tools/mingw64/bin/../lib/gcc/x86_64-w64-mingw32/6.2.0/../../../../x86_64-w64-mingw32/lib/../lib/libmsvcrt.a(dekes01189.o)
 .idata$4       0x00000000004552f0        0x8 K:/embedded/General Tools/General Tools/mingw64/bin/../lib/gcc/x86_64-w64-mingw32/6.2.0/../../../../x86_64-w64-mingw32/lib/../lib/libmsvcrt.a(dekes01198.o)
 .idata$4       0x00000000004552f8        0x8 K:/embedded/General Tools/General Tools/mingw64/bin/../lib/gcc/x86_64-w64-mingw32/6.2.0/../../../../x86_64-w64-mingw32/lib/../lib/libmsvcrt.a(dekes01205.o)
 .idata$4       0x0000000000455300        0x8 K:/embedded/General Tools/General Tools/mingw64/bin/../lib/gcc/x86_64-w64-mingw32/6.2.0/../../../../x86_64-w64-mingw32/lib/../lib/libmsvcrt.a(dekes01208.o)
 .idata$4       0x0000000000455308        0x8 K:/embedded/General Tools/General Tools/mingw64/bin/../lib/gcc/x86_64-w64-mingw32/6.2.0/../../../../x86_64-w64-mingw32/lib/../lib/libmsvcrt.a(dekes01240.o)
 .idata$4       0x0000000000455310        0x8 K:/embedded/General Tools/General Tools/mingw64/bin/../lib/gcc/x86_64-w64-mingw32/6.2.0/../../../../x86_64-w64-mingw32/lib/../lib/libmsvcrt.a(deket.o)
 .idata$4       0x0000000000455318        0x0 K:/embedded/General Tools/General Tools/mingw64/bin/../lib/gcc/x86_64-w64-mingw32/6.2.0/../../../../x86_64-w64-mingw32/lib/../lib/libwinmm.a(dmceh.o)
 .idata$4       0x0000000000455318        0x8 K:/embedded/General Tools/General Tools/mingw64/bin/../lib/gcc/x86_64-w64-mingw32/6.2.0/../../../../x86_64-w64-mingw32/lib/../lib/libwinmm.a(dmces00149.o)
 .idata$4       0x0000000000455320        0x8 K:/embedded/General Tools/General Tools/mingw64/bin/../lib/gcc/x86_64-w64-mingw32/6.2.0/../../../../x86_64-w64-mingw32/lib/../lib/libwinmm.a(dmces00150.o)
 .idata$4       0x0000000000455328        0x8 K:/embedded/General Tools/General Tools/mingw64/bin/../lib/gcc/x86_64-w64-mingw32/6.2.0/../../../../x86_64-w64-mingw32/lib/../lib/libwinmm.a(dmces00151.o)
 .idata$4       0x0000000000455330        0x8 K:/embedded/General Tools/General Tools/mingw64/bin/../lib/gcc/x86_64-w64-mingw32/6.2.0/../../../../x86_64-w64-mingw32/lib/../lib/libwinmm.a(dmcet.o)
                0x0000000000455338                __IAT_start__ = .
 SORT(*)(.idata$5)
 .idata$5       0x0000000000455338        0x0 K:/embedded/General Tools/General Tools/mingw64/bin/../lib/gcc/x86_64-w64-mingw32/6.2.0/../../../../x86_64-w64-mingw32/lib/../lib/libkernel32.a(dmmdh.o)
 .idata$5       0x0000000000455338        0x8 K:/embedded/General Tools/General Tools/mingw64/bin/../lib/gcc/x86_64-w64-mingw32/6.2.0/../../../../x86_64-w64-mingw32/lib/../lib/libkernel32.a(dmmds00085.o)
                0x0000000000455338                __imp_CloseHandle
 .idata$5       0x0000000000455340        0x8 K:/embedded/General Tools/General Tools/mingw64/bin/../lib/gcc/x86_64-w64-mingw32/6.2.0/../../../../x86_64-w64-mingw32/lib/../lib/libkernel32.a(dmmds00134.o)
                0x0000000000455340                __imp_CreateEventA
 .idata$5       0x0000000000455348        0x8 K:/embedded/General Tools/General Tools/mingw64/bin/../lib/gcc/x86_64-w64-mingw32/6.2.0/../../../../x86_64-w64-mingw32/lib/../lib/libkernel32.a(dmmds00160.o)
                0x0000000000455348                __imp_CreateMutexA
 .idata$5       0x0000000000455350        0x8 K:/embedded/General Tools/General Tools/mingw64/bin/../lib/gcc/x86_64-w64-mingw32/6.2.0/../../../../x86_64-w64-mingw32/lib/../lib/libkernel32.a(dmmds00186.o)
                0x0000000000455350                __imp_CreateThread
 .idata$5       0x0000000000455358        0x8 K:/embedded/General Tools/General Tools/mingw64/bin/../lib/gcc/x86_64-w64-mingw32/6.2.0/../../../../x86_64-w64-mingw32/lib/../lib/libkernel32.a(dmmds00216.o)
                0x0000000000455358                __imp_DeleteCriticalSection
 .idata$5       0x0000000000455360        0x8 K:/embedded/General Tools/General Tools/mingw64/bin/../lib/gcc/x86_64-w64-mingw32/6.2.0/../../../../x86_64-w64-mingw32/lib/../lib/libkernel32.a(dmmds00249.o)
                0x0000000000455360                __imp_EnterCriticalSection
 .idata$5       0x0000000000455368        0x8 K:/embedded/General Tools/General Tools/mingw64/bin/../lib/gcc/x86_64-w64-mingw32/6.2.0/../../../../x86_64-w64-mingw32/lib/../lib/libkernel32.a(dmmds00295.o)
                0x0000000000455368                __imp_ExitThread
 .idata$5       0x0000000000455370        0x8 K:/embedded/General Tools/General Tools/mingw64/bin/../lib/gcc/x86_64-w64-mingw32/6.2.0/../../../../x86_64-w64-mingw32/lib/../lib/libkernel32.a(dmmds00462.o)
                0x0000000000455370                __imp_GetCurrentProcess
 .idata$5       0x0000000000455378        0x8 K:/embedded/General Tools/General Tools/mingw64/bin/../lib/gcc/x86_64-w64-mingw32/6.2.0/../../../../x86_64-w64-mingw32/lib/../lib/libkernel32.a(dmmds00463.o)
                0x0000000000455378                __imp_GetCurrentProcessId
 .idata$5       0x0000000000455380        0x8 K:/embedded/General Tools/General Tools/mingw64/bin/../lib/gcc/x86_64-w64-mingw32/6.2.0/../../../../x86_64-w64-mingw32/lib/../lib/libkernel32.a(dmmds00466.o)
                0x0000000000455380                __imp_GetCurrentThread
 .idata$5       0x0000000000455388        0x8 K:/embedded/General Tools/General Tools/mingw64/bin/../lib/gcc/x86_64-w64-mingw32/6.2.0/../../../../x86_64-w64-mingw32/lib/../lib/libkernel32.a(dmmds00467.o)
                0x0000000000455388                __imp_GetCurrentThreadId
 .idata$5       0x0000000000455390        0x8 K:/embedded/General Tools/General Tools/mingw64/bin/../lib/gcc/x86_64-w64-mingw32/6.2.0/../../../../x86_64-w64-mingw32/lib/../lib/libkernel32.a(dmmds00529.o)
                0x0000000000455390                __imp_GetLastError
 .idata$5       0x0000000000455398        0x8 K:/embedded/General Tools/General Tools/mingw64/bin/../lib/gcc/x86_64-w64-mingw32/6.2.0/../../../../x86_64-w64-mingw32/lib/../lib/libkernel32.a(dmmds00549.o)
                0x0000000000455398                __imp_GetModuleHandleA
 .idata$5       0x00000000004553a0        0x8 K:/embedded/General Tools/General Tools/mingw64/bin/../lib/gcc/x86_64-w64-mingw32/6.2.0/../../../../x86_64-w64-mingw32/lib/../lib/libkernel32.a(dmmds00599.o)
                0x00000000004553a0                __imp_GetProcAddress
 .idata$5       0x00000000004553a8        0x8 K:/embedded/General Tools/General Tools/mingw64/bin/../lib/gcc/x86_64-w64-mingw32/6.2.0/../../../../x86_64-w64-mingw32/lib/../lib/libkernel32.a(dmmds00628.o)
                0x00000000004553a8                __imp_GetStartupInfoA
 .idata$5       0x00000000004553b0        0x8 K:/embedded/General Tools/General Tools/mingw64/bin/../lib/gcc/x86_64-w64-mingw32/6.2.0/../../../../x86_64-w64-mingw32/lib/../lib/libkernel32.a(dmmds00645.o)
                0x00000000004553b0                __imp_GetSystemInfo
 .idata$5       0x00000000004553b8        0x8 K:/embedded/General Tools/General Tools/mingw64/bin/../lib/gcc/x86_64-w64-mingw32/6.2.0/../../../../x86_64-w64-mingw32/lib/../lib/libkernel32.a(dmmds00651.o)
                0x00000000004553b8                __imp_GetSystemTimeAsFileTime
 .idata$5       0x00000000004553c0        0x8 K:/embedded/General Tools/General Tools/mingw64/bin/../lib/gcc/x86_64-w64-mingw32/6.2.0/../../../../x86_64-w64-mingw32/lib/../lib/libkernel32.a(dmmds00665.o)
                0x00000000004553c0                __imp_GetThreadContext
 .idata$5       0x00000000004553c8        0x8 K:/embedded/General Tools/General Tools/mingw64/bin/../lib/gcc/x86_64-w64-mingw32/6.2.0/../../../../x86_64-w64-mingw32/lib/../lib/libkernel32.a(dmmds00678.o)
                0x00000000004553c8                __imp_GetTickCount
 .idata$5       0x00000000004553d0        0x8 K:/embedded/General Tools/General Tools/mingw64/bin/../lib/gcc/x86_64-w64-mingw32/6.2.0/../../../../x86_64-w64-mingw32/lib/../lib/libkernel32.a(dmmds00762.o)
                0x00000000004553d0                __imp_InitializeCriticalSection
 .idata$5       0x00000000004553d8        0x8 K:/embedded/General Tools/General Tools/mingw64/bin/../lib/gcc/x86_64-w64-mingw32/6.2.0/../../../../x86_64-w64-mingw32/lib/../lib/libkernel32.a(dmmds00844.o)
                0x00000000004553d8                __imp_LeaveCriticalSection
 .idata$5       0x00000000004553e0        0x8 K:/embedded/General Tools/General Tools/mingw64/bin/../lib/gcc/x86_64-w64-mingw32/6.2.0/../../../../x86_64-w64-mingw32/lib/../lib/libkernel32.a(dmmds00958.o)
                0x00000000004553e0                __imp_QueryPerformanceCounter
 .idata$5       0x00000000004553e8        0x8 K:/embedded/General Tools/General Tools/mingw64/bin/../lib/gcc/x86_64-w64-mingw32/6.2.0/../../../../x86_64-w64-mingw32/lib/../lib/libkernel32.a(dmmds00959.o)
                0x00000000004553e8                __imp_QueryPerformanceFrequency
 .idata$5       0x00000000004553f0        0x8 K:/embedded/General Tools/General Tools/mingw64/bin/../lib/gcc/x86_64-w64-mingw32/6.2.0/../../../../x86_64-w64-mingw32/lib/../lib/libkernel32.a(dmmds01003.o)
                0x00000000004553f0                __imp_ReleaseMutex
 .idata$5       0x00000000004553f8        0x8 K:/embedded/General Tools/General Tools/mingw64/bin/../lib/gcc/x86_64-w64-mingw32/6.2.0/../../../../x86_64-w64-mingw32/lib/../lib/libkernel32.a(dmmds01024.o)
                0x00000000004553f8                __imp_ResetEvent
 .idata$5       0x0000000000455400        0x8 K:/embedded/General Tools/General Tools/mingw64/bin/../lib/gcc/x86_64-w64-mingw32/6.2.0/../../../../x86_64-w64-mingw32/lib/../lib/libkernel32.a(dmmds01028.o)
                0x0000000000455400                __imp_ResumeThread
 .idata$5       0x0000000000455408        0x8 K:/embedded/General Tools/General Tools/mingw64/bin/../lib/gcc/x86_64-w64-mingw32/6.2.0/../../../../x86_64-w64-mingw32/lib/../lib/libkernel32.a(dmmds01029.o)
                0x0000000000455408                __imp_RtlAddFunctionTable
 .idata$5       0x0000000000455410        0x8 K:/embedded/General Tools/General Tools/mingw64/bin/../lib/gcc/x86_64-w64-mingw32/6.2.0/../../../../x86_64-w64-mingw32/lib/../lib/libkernel32.a(dmmds01030.o)
                0x0000000000455410                __imp_RtlCaptureContext
 .idata$5       0x0000000000455418        0x8 K:/embedded/General Tools/General Tools/mingw64/bin/../lib/gcc/x86_64-w64-mingw32/6.2.0/../../../../x86_64-w64-mingw32/lib/../lib/libkernel32.a(dmmds01037.o)
                0x0000000000455418                __imp_RtlLookupFunctionEntry
 .idata$5       0x0000000000455420        0x8 K:/embedded/General Tools/General Tools/mingw64/bin/../lib/gcc/x86_64-w64-mingw32/6.2.0/../../../../x86_64-w64-mingw32/lib/../lib/libkernel32.a(dmmds01044.o)
                0x0000000000455420                __imp_RtlVirtualUnwind
 .idata$5       0x0000000000455428        0x8 K:/embedded/General Tools/General Tools/mingw64/bin/../lib/gcc/x86_64-w64-mingw32/6.2.0/../../../../x86_64-w64-mingw32/lib/../lib/libkernel32.a(dmmds01067.o)
                0x0000000000455428                __imp_SetConsoleCtrlHandler
 .idata$5       0x0000000000455430        0x8 K:/embedded/General Tools/General Tools/mingw64/bin/../lib/gcc/x86_64-w64-mingw32/6.2.0/../../../../x86_64-w64-mingw32/lib/../lib/libkernel32.a(dmmds01111.o)
                0x0000000000455430                __imp_SetEvent
 .idata$5       0x0000000000455438        0x8 K:/embedded/General Tools/General Tools/mingw64/bin/../lib/gcc/x86_64-w64-mingw32/6.2.0/../../../../x86_64-w64-mingw32/lib/../lib/libkernel32.a(dmmds01146.o)
                0x0000000000455438                __imp_SetPriorityClass
 .idata$5       0x0000000000455440        0x8 K:/embedded/General Tools/General Tools/mingw64/bin/../lib/gcc/x86_64-w64-mingw32/6.2.0/../../../../x86_64-w64-mingw32/lib/../lib/libkernel32.a(dmmds01165.o)
                0x0000000000455440                __imp_SetThreadAffinityMask
 .idata$5       0x0000000000455448        0x8 K:/embedded/General Tools/General Tools/mingw64/bin/../lib/gcc/x86_64-w64-mingw32/6.2.0/../../../../x86_64-w64-mingw32/lib/../lib/libkernel32.a(dmmds01174.o)
                0x0000000000455448                __imp_SetThreadPriority
 .idata$5       0x0000000000455450        0x8 K:/embedded/General Tools/General Tools/mingw64/bin/../lib/gcc/x86_64-w64-mingw32/6.2.0/../../../../x86_64-w64-mingw32/lib/../lib/libkernel32.a(dmmds01175.o)
                0x0000000000455450                __imp_SetThreadPriorityBoost
 .idata$5       0x0000000000455458        0x8 K:/embedded/General Tools/General Tools/mingw64/bin/../lib/gcc/x86_64-w64-mingw32/6.2.0/../../../../x86_64-w64-mingw32/lib/../lib/libkernel32.a(dmmds01187.o)
                0x0000000000455458                __imp_SetUnhandledExceptionFilter
 .idata$5       0x0000000000455460        0x8 K:/embedded/General Tools/General Tools/mingw64/bin/../lib/gcc/x86_64-w64-mingw32/6.2.0/../../../../x86_64-w64-mingw32/lib/../lib/libkernel32.a(dmmds01200.o)
                0x0000000000455460                __imp_Sleep
 .idata$5       0x0000000000455468        0x8 K:/embedded/General Tools/General Tools/mingw64/bin/../lib/gcc/x86_64-w64-mingw32/6.2.0/../../../../x86_64-w64-mingw32/lib/../lib/libkernel32.a(dmmds01208.o)
                0x0000000000455468                __imp_SuspendThread
 .idata$5       0x0000000000455470        0x8 K:/embedded/General Tools/General Tools/mingw64/bin/../lib/gcc/x86_64-w64-mingw32/6.2.0/../../../../x86_64-w64-mingw32/lib/../lib/libkernel32.a(dmmds01214.o)
                0x0000000000455470                __imp_TerminateProcess
 .idata$5       0x0000000000455478        0x8 K:/embedded/General Tools/General Tools/mingw64/bin/../lib/gcc/x86_64-w64-mingw32/6.2.0/../../../../x86_64-w64-mingw32/lib/../lib/libkernel32.a(dmmds01215.o)
                0x0000000000455478                __imp_TerminateThread
 .idata$5       0x0000000000455480        0x8 K:/embedded/General Tools/General Tools/mingw64/bin/../lib/gcc/x86_64-w64-mingw32/6.2.0/../../../../x86_64-w64-mingw32/lib/../lib/libkernel32.a(dmmds01221.o)
                0x0000000000455480                __imp_TlsGetValue
 .idata$5       0x0000000000455488        0x8 K:/embedded/General Tools/General Tools/mingw64/bin/../lib/gcc/x86_64-w64-mingw32/6.2.0/../../../../x86_64-w64-mingw32/lib/../lib/libkernel32.a(dmmds01234.o)
                0x0000000000455488                __imp_UnhandledExceptionFilter
 .idata$5       0x0000000000455490        0x8 K:/embedded/General Tools/General Tools/mingw64/bin/../lib/gcc/x86_64-w64-mingw32/6.2.0/../../../../x86_64-w64-mingw32/lib/../lib/libkernel32.a(dmmds01264.o)
                0x0000000000455490                __imp_VirtualProtect
 .idata$5       0x0000000000455498        0x8 K:/embedded/General Tools/General Tools/mingw64/bin/../lib/gcc/x86_64-w64-mingw32/6.2.0/../../../../x86_64-w64-mingw32/lib/../lib/libkernel32.a(dmmds01266.o)
                0x0000000000455498                __imp_VirtualQuery
 .idata$5       0x00000000004554a0        0x8 K:/embedded/General Tools/General Tools/mingw64/bin/../lib/gcc/x86_64-w64-mingw32/6.2.0/../../../../x86_64-w64-mingw32/lib/../lib/libkernel32.a(dmmds01272.o)
                0x00000000004554a0                __imp_WaitForMultipleObjects
 .idata$5       0x00000000004554a8        0x8 K:/embedded/General Tools/General Tools/mingw64/bin/../lib/gcc/x86_64-w64-mingw32/6.2.0/../../../../x86_64-w64-mingw32/lib/../lib/libkernel32.a(dmmds01274.o)
                0x00000000004554a8                __imp_WaitForSingleObject
 .idata$5       0x00000000004554b0        0x8 K:/embedded/General Tools/General Tools/mingw64/bin/../lib/gcc/x86_64-w64-mingw32/6.2.0/../../../../x86_64-w64-mingw32/lib/../lib/libkernel32.a(dmmdt.o)
 .idata$5       0x00000000004554b8        0x0 K:/embedded/General Tools/General Tools/mingw64/bin/../lib/gcc/x86_64-w64-mingw32/6.2.0/../../../../x86_64-w64-mingw32/lib/../lib/libmsvcrt.a(dekeh.o)
 .idata$5       0x00000000004554b8        0x8 K:/embedded/General Tools/General Tools/mingw64/bin/../lib/gcc/x86_64-w64-mingw32/6.2.0/../../../../x86_64-w64-mingw32/lib/../lib/libmsvcrt.a(dekes00055.o)
                0x00000000004554b8                __imp___C_specific_handler
 .idata$5       0x00000000004554c0        0x8 K:/embedded/General Tools/General Tools/mingw64/bin/../lib/gcc/x86_64-w64-mingw32/6.2.0/../../../../x86_64-w64-mingw32/lib/../lib/libmsvcrt.a(dekes00078.o)
                0x00000000004554c0                __imp___dllonexit
 .idata$5       0x00000000004554c8        0x8 K:/embedded/General Tools/General Tools/mingw64/bin/../lib/gcc/x86_64-w64-mingw32/6.2.0/../../../../x86_64-w64-mingw32/lib/../lib/libmsvcrt.a(dekes00081.o)
                0x00000000004554c8                __imp___getmainargs
 .idata$5       0x00000000004554d0        0x8 K:/embedded/General Tools/General Tools/mingw64/bin/../lib/gcc/x86_64-w64-mingw32/6.2.0/../../../../x86_64-w64-mingw32/lib/../lib/libmsvcrt.a(dekes00082.o)
                0x00000000004554d0                __imp___initenv
 .idata$5       0x00000000004554d8        0x8 K:/embedded/General Tools/General Tools/mingw64/bin/../lib/gcc/x86_64-w64-mingw32/6.2.0/../../../../x86_64-w64-mingw32/lib/../lib/libmsvcrt.a(dekes00083.o)
                0x00000000004554d8                __imp___iob_func
 .idata$5       0x00000000004554e0        0x8 K:/embedded/General Tools/General Tools/mingw64/bin/../lib/gcc/x86_64-w64-mingw32/6.2.0/../../../../x86_64-w64-mingw32/lib/../lib/libmsvcrt.a(dekes00091.o)
                0x00000000004554e0                __imp___lconv_init
 .idata$5       0x00000000004554e8        0x8 K:/embedded/General Tools/General Tools/mingw64/bin/../lib/gcc/x86_64-w64-mingw32/6.2.0/../../../../x86_64-w64-mingw32/lib/../lib/libmsvcrt.a(dekes00097.o)
                0x00000000004554e8                __imp___set_app_type
 .idata$5       0x00000000004554f0        0x8 K:/embedded/General Tools/General Tools/mingw64/bin/../lib/gcc/x86_64-w64-mingw32/6.2.0/../../../../x86_64-w64-mingw32/lib/../lib/libmsvcrt.a(dekes00099.o)
                0x00000000004554f0                __imp___setusermatherr
 .idata$5       0x00000000004554f8        0x8 K:/embedded/General Tools/General Tools/mingw64/bin/../lib/gcc/x86_64-w64-mingw32/6.2.0/../../../../x86_64-w64-mingw32/lib/../lib/libmsvcrt.a(dekes00116.o)
                0x00000000004554f8                __imp__acmdln
 .idata$5       0x0000000000455500        0x8 K:/embedded/General Tools/General Tools/mingw64/bin/../lib/gcc/x86_64-w64-mingw32/6.2.0/../../../../x86_64-w64-mingw32/lib/../lib/libmsvcrt.a(dekes00123.o)
                0x0000000000455500                __imp__amsg_exit
 .idata$5       0x0000000000455508        0x8 K:/embedded/General Tools/General Tools/mingw64/bin/../lib/gcc/x86_64-w64-mingw32/6.2.0/../../../../x86_64-w64-mingw32/lib/../lib/libmsvcrt.a(dekes00141.o)
                0x0000000000455508                __imp__cexit
 .idata$5       0x0000000000455510        0x8 K:/embedded/General Tools/General Tools/mingw64/bin/../lib/gcc/x86_64-w64-mingw32/6.2.0/../../../../x86_64-w64-mingw32/lib/../lib/libmsvcrt.a(dekes00252.o)
                0x0000000000455510                __imp__fmode
 .idata$5       0x0000000000455518        0x8 K:/embedded/General Tools/General Tools/mingw64/bin/../lib/gcc/x86_64-w64-mingw32/6.2.0/../../../../x86_64-w64-mingw32/lib/../lib/libmsvcrt.a(dekes00330.o)
                0x0000000000455518                __imp__initterm
 .idata$5       0x0000000000455520        0x8 K:/embedded/General Tools/General Tools/mingw64/bin/../lib/gcc/x86_64-w64-mingw32/6.2.0/../../../../x86_64-w64-mingw32/lib/../lib/libmsvcrt.a(dekes00438.o)
                0x0000000000455520                __imp__lock
 .idata$5       0x0000000000455528        0x8 K:/embedded/General Tools/General Tools/mingw64/bin/../lib/gcc/x86_64-w64-mingw32/6.2.0/../../../../x86_64-w64-mingw32/lib/../lib/libmsvcrt.a(dekes00611.o)
                0x0000000000455528                __imp__onexit
 .idata$5       0x0000000000455530        0x8 K:/embedded/General Tools/General Tools/mingw64/bin/../lib/gcc/x86_64-w64-mingw32/6.2.0/../../../../x86_64-w64-mingw32/lib/../lib/libmsvcrt.a(dekes00820.o)
                0x0000000000455530                __imp__unlock
 .idata$5       0x0000000000455538        0x8 K:/embedded/General Tools/General Tools/mingw64/bin/../lib/gcc/x86_64-w64-mingw32/6.2.0/../../../../x86_64-w64-mingw32/lib/../lib/libmsvcrt.a(dekes01028.o)
                0x0000000000455538                __imp_abort
 .idata$5       0x0000000000455540        0x8 K:/embedded/General Tools/General Tools/mingw64/bin/../lib/gcc/x86_64-w64-mingw32/6.2.0/../../../../x86_64-w64-mingw32/lib/../lib/libmsvcrt.a(dekes01048.o)
                0x0000000000455540                __imp_calloc
 .idata$5       0x0000000000455548        0x8 K:/embedded/General Tools/General Tools/mingw64/bin/../lib/gcc/x86_64-w64-mingw32/6.2.0/../../../../x86_64-w64-mingw32/lib/../lib/libmsvcrt.a(dekes01061.o)
                0x0000000000455548                __imp_exit
 .idata$5       0x0000000000455550        0x8 K:/embedded/General Tools/General Tools/mingw64/bin/../lib/gcc/x86_64-w64-mingw32/6.2.0/../../../../x86_64-w64-mingw32/lib/../lib/libmsvcrt.a(dekes01065.o)
                0x0000000000455550                __imp_fclose
 .idata$5       0x0000000000455558        0x8 K:/embedded/General Tools/General Tools/mingw64/bin/../lib/gcc/x86_64-w64-mingw32/6.2.0/../../../../x86_64-w64-mingw32/lib/../lib/libmsvcrt.a(dekes01068.o)
                0x0000000000455558                __imp_fflush
 .idata$5       0x0000000000455560        0x8 K:/embedded/General Tools/General Tools/mingw64/bin/../lib/gcc/x86_64-w64-mingw32/6.2.0/../../../../x86_64-w64-mingw32/lib/../lib/libmsvcrt.a(dekes01078.o)
                0x0000000000455560                __imp_fopen
 .idata$5       0x0000000000455568        0x8 K:/embedded/General Tools/General Tools/mingw64/bin/../lib/gcc/x86_64-w64-mingw32/6.2.0/../../../../x86_64-w64-mingw32/lib/../lib/libmsvcrt.a(dekes01080.o)
                0x0000000000455568                __imp_fprintf
 .idata$5       0x0000000000455570        0x8 K:/embedded/General Tools/General Tools/mingw64/bin/../lib/gcc/x86_64-w64-mingw32/6.2.0/../../../../x86_64-w64-mingw32/lib/../lib/libmsvcrt.a(dekes01087.o)
                0x0000000000455570                __imp_free
 .idata$5       0x0000000000455578        0x8 K:/embedded/General Tools/General Tools/mingw64/bin/../lib/gcc/x86_64-w64-mingw32/6.2.0/../../../../x86_64-w64-mingw32/lib/../lib/libmsvcrt.a(dekes01099.o)
                0x0000000000455578                __imp_fwrite
 .idata$5       0x0000000000455580        0x8 K:/embedded/General Tools/General Tools/mingw64/bin/../lib/gcc/x86_64-w64-mingw32/6.2.0/../../../../x86_64-w64-mingw32/lib/../lib/libmsvcrt.a(dekes01146.o)
                0x0000000000455580                __imp_malloc
 .idata$5       0x0000000000455588        0x8 K:/embedded/General Tools/General Tools/mingw64/bin/../lib/gcc/x86_64-w64-mingw32/6.2.0/../../../../x86_64-w64-mingw32/lib/../lib/libmsvcrt.a(dekes01153.o)
                0x0000000000455588                __imp_memcmp
 .idata$5       0x0000000000455590        0x8 K:/embedded/General Tools/General Tools/mingw64/bin/../lib/gcc/x86_64-w64-mingw32/6.2.0/../../../../x86_64-w64-mingw32/lib/../lib/libmsvcrt.a(dekes01154.o)
                0x0000000000455590                __imp_memcpy
 .idata$5       0x0000000000455598        0x8 K:/embedded/General Tools/General Tools/mingw64/bin/../lib/gcc/x86_64-w64-mingw32/6.2.0/../../../../x86_64-w64-mingw32/lib/../lib/libmsvcrt.a(dekes01156.o)
                0x0000000000455598                __imp_memset
 .idata$5       0x00000000004555a0        0x8 K:/embedded/General Tools/General Tools/mingw64/bin/../lib/gcc/x86_64-w64-mingw32/6.2.0/../../../../x86_64-w64-mingw32/lib/../lib/libmsvcrt.a(dekes01163.o)
                0x00000000004555a0                __imp_printf
 .idata$5       0x00000000004555a8        0x8 K:/embedded/General Tools/General Tools/mingw64/bin/../lib/gcc/x86_64-w64-mingw32/6.2.0/../../../../x86_64-w64-mingw32/lib/../lib/libmsvcrt.a(dekes01166.o)
                0x00000000004555a8                __imp_putchar
 .idata$5       0x00000000004555b0        0x8 K:/embedded/General Tools/General Tools/mingw64/bin/../lib/gcc/x86_64-w64-mingw32/6.2.0/../../../../x86_64-w64-mingw32/lib/../lib/libmsvcrt.a(dekes01167.o)
                0x00000000004555b0                __imp_puts
 .idata$5       0x00000000004555b8        0x8 K:/embedded/General Tools/General Tools/mingw64/bin/../lib/gcc/x86_64-w64-mingw32/6.2.0/../../../../x86_64-w64-mingw32/lib/../lib/libmsvcrt.a(dekes01173.o)
                0x00000000004555b8                __imp_rand
 .idata$5       0x00000000004555c0        0x8 K:/embedded/General Tools/General Tools/mingw64/bin/../lib/gcc/x86_64-w64-mingw32/6.2.0/../../../../x86_64-w64-mingw32/lib/../lib/libmsvcrt.a(dekes01183.o)
                0x00000000004555c0                __imp_setvbuf
 .idata$5       0x00000000004555c8        0x8 K:/embedded/General Tools/General Tools/mingw64/bin/../lib/gcc/x86_64-w64-mingw32/6.2.0/../../../../x86_64-w64-mingw32/lib/../lib/libmsvcrt.a(dekes01184.o)
                0x00000000004555c8                __imp_signal
 .idata$5       0x00000000004555d0        0x8 K:/embedded/General Tools/General Tools/mingw64/bin/../lib/gcc/x86_64-w64-mingw32/6.2.0/../../../../x86_64-w64-mingw32/lib/../lib/libmsvcrt.a(dekes01189.o)
                0x00000000004555d0                __imp_sprintf
 .idata$5       0x00000000004555d8        0x8 K:/embedded/General Tools/General Tools/mingw64/bin/../lib/gcc/x86_64-w64-mingw32/6.2.0/../../../../x86_64-w64-mingw32/lib/../lib/libmsvcrt.a(dekes01198.o)
                0x00000000004555d8                __imp_strcmp
 .idata$5       0x00000000004555e0        0x8 K:/embedded/General Tools/General Tools/mingw64/bin/../lib/gcc/x86_64-w64-mingw32/6.2.0/../../../../x86_64-w64-mingw32/lib/../lib/libmsvcrt.a(dekes01205.o)
                0x00000000004555e0                __imp_strlen
 .idata$5       0x00000000004555e8        0x8 K:/embedded/General Tools/General Tools/mingw64/bin/../lib/gcc/x86_64-w64-mingw32/6.2.0/../../../../x86_64-w64-mingw32/lib/../lib/libmsvcrt.a(dekes01208.o)
                0x00000000004555e8                __imp_strncmp
 .idata$5       0x00000000004555f0        0x8 K:/embedded/General Tools/General Tools/mingw64/bin/../lib/gcc/x86_64-w64-mingw32/6.2.0/../../../../x86_64-w64-mingw32/lib/../lib/libmsvcrt.a(dekes01240.o)
                0x00000000004555f0                __imp_vfprintf
 .idata$5       0x00000000004555f8        0x8 K:/embedded/General Tools/General Tools/mingw64/bin/../lib/gcc/x86_64-w64-mingw32/6.2.0/../../../../x86_64-w64-mingw32/lib/../lib/libmsvcrt.a(deket.o)
 .idata$5       0x0000000000455600        0x0 K:/embedded/General Tools/General Tools/mingw64/bin/../lib/gcc/x86_64-w64-mingw32/6.2.0/../../../../x86_64-w64-mingw32/lib/../lib/libwinmm.a(dmceh.o)
 .idata$5       0x0000000000455600        0x8 K:/embedded/General Tools/General Tools/mingw64/bin/../lib/gcc/x86_64-w64-mingw32/6.2.0/../../../../x86_64-w64-mingw32/lib/../lib/libwinmm.a(dmces00149.o)
                0x0000000000455600                __imp_timeBeginPeriod
 .idata$5       0x0000000000455608        0x8 K:/embedded/General Tools/General Tools/mingw64/bin/../lib/gcc/x86_64-w64-mingw32/6.2.0/../../../../x86_64-w64-mingw32/lib/../lib/libwinmm.a(dmces00150.o)
                0x0000000000455608                __imp_timeEndPeriod
 .idata$5       0x0000000000455610        0x8 K:/embedded/General Tools/General Tools/mingw64/bin/../lib/gcc/x86_64-w64-mingw32/6.2.0/../../../../x86_64-w64-mingw32/lib/../lib/libwinmm.a(dmces00151.o)
                0x0000000000455610                __imp_timeGetDevCaps
 .idata$5       0x0000000000455618        0x8 K:/embedded/General Tools/General Tools/mingw64/bin/../lib/gcc/x86_64-w64-mingw32/6.2.0/../../../../x86_64-w64-mingw32/lib/../lib/libwinmm.a(dmcet.o)
                0x0000000000455620                __IAT_end__ = .
 SORT(*)(.idata$6)
 .idata$6       0x0000000000455620        0xe K:/embedded/General Tools/General Tools/mingw64/bin/../lib/gcc/x86_64-w64-mingw32/6.2.0/../../../../x86_64-w64-mingw32/lib/../lib/libkernel32.a(dmmds00085.o)
 .idata$6       0x000000000045562e       0x10 K:/embedded/General Tools/General Tools/mingw64/bin/../lib/gcc/x86_64-w64-mingw32/6.2.0/../../../../x86_64-w64-mingw32/lib/../lib/libkernel32.a(dmmds00134.o)
 .idata$6       0x000000000045563e       0x10 K:/embedded/General Tools/General Tools/mingw64/bin/../lib/gcc/x86_64-w64-mingw32/6.2.0/../../../../x86_64-w64-mingw32/lib/../lib/libkernel32.a(dmmds00160.o)
 .idata$6       0x000000000045564e       0x10 K:/embedded/General Tools/General Tools/mingw64/bin/../lib/gcc/x86_64-w64-mingw32/6.2.0/../../../../x86_64-w64-mingw32/lib/../lib/libkernel32.a(dmmds00186.o)
 .idata$6       0x000000000045565e       0x18 K:/embedded/General Tools/General Tools/mingw64/bin/../lib/gcc/x86_64-w64-mingw32/6.2.0/../../../../x86_64-w64-mingw32/lib/../lib/libkernel32.a(dmmds00216.o)
 .idata$6       0x0000000000455676       0x18 K:/embedded/General Tools/General Tools/mingw64/bin/../lib/gcc/x86_64-w64-mingw32/6.2.0/../../../../x86_64-w64-mingw32/lib/../lib/libkernel32.a(dmmds00249.o)
 .idata$6       0x000000000045568e        0xe K:/embedded/General Tools/General Tools/mingw64/bin/../lib/gcc/x86_64-w64-mingw32/6.2.0/../../../../x86_64-w64-mingw32/lib/../lib/libkernel32.a(dmmds00295.o)
 .idata$6       0x000000000045569c       0x14 K:/embedded/General Tools/General Tools/mingw64/bin/../lib/gcc/x86_64-w64-mingw32/6.2.0/../../../../x86_64-w64-mingw32/lib/../lib/libkernel32.a(dmmds00462.o)
 .idata$6       0x00000000004556b0       0x16 K:/embedded/General Tools/General Tools/mingw64/bin/../lib/gcc/x86_64-w64-mingw32/6.2.0/../../../../x86_64-w64-mingw32/lib/../lib/libkernel32.a(dmmds00463.o)
 .idata$6       0x00000000004556c6       0x14 K:/embedded/General Tools/General Tools/mingw64/bin/../lib/gcc/x86_64-w64-mingw32/6.2.0/../../../../x86_64-w64-mingw32/lib/../lib/libkernel32.a(dmmds00466.o)
 .idata$6       0x00000000004556da       0x16 K:/embedded/General Tools/General Tools/mingw64/bin/../lib/gcc/x86_64-w64-mingw32/6.2.0/../../../../x86_64-w64-mingw32/lib/../lib/libkernel32.a(dmmds00467.o)
 .idata$6       0x00000000004556f0       0x10 K:/embedded/General Tools/General Tools/mingw64/bin/../lib/gcc/x86_64-w64-mingw32/6.2.0/../../../../x86_64-w64-mingw32/lib/../lib/libkernel32.a(dmmds00529.o)
 .idata$6       0x0000000000455700       0x14 K:/embedded/General Tools/General Tools/mingw64/bin/../lib/gcc/x86_64-w64-mingw32/6.2.0/../../../../x86_64-w64-mingw32/lib/../lib/libkernel32.a(dmmds00549.o)
 .idata$6       0x0000000000455714       0x12 K:/embedded/General Tools/General Tools/mingw64/bin/../lib/gcc/x86_64-w64-mingw32/6.2.0/../../../../x86_64-w64-mingw32/lib/../lib/libkernel32.a(dmmds00599.o)
 .idata$6       0x0000000000455726       0x12 K:/embedded/General Tools/General Tools/mingw64/bin/../lib/gcc/x86_64-w64-mingw32/6.2.0/../../../../x86_64-w64-mingw32/lib/../lib/libkernel32.a(dmmds00628.o)
 .idata$6       0x0000000000455738       0x10 K:/embedded/General Tools/General Tools/mingw64/bin/../lib/gcc/x86_64-w64-mingw32/6.2.0/../../../../x86_64-w64-mingw32/lib/../lib/libkernel32.a(dmmds00645.o)
 .idata$6       0x0000000000455748       0x1a K:/embedded/General Tools/General Tools/mingw64/bin/../lib/gcc/x86_64-w64-mingw32/6.2.0/../../../../x86_64-w64-mingw32/lib/../lib/libkernel32.a(dmmds00651.o)
 .idata$6       0x0000000000455762       0x14 K:/embedded/General Tools/General Tools/mingw64/bin/../lib/gcc/x86_64-w64-mingw32/6.2.0/../../../../x86_64-w64-mingw32/lib/../lib/libkernel32.a(dmmds00665.o)
 .idata$6       0x0000000000455776       0x10 K:/embedded/General Tools/General Tools/mingw64/bin/../lib/gcc/x86_64-w64-mingw32/6.2.0/../../../../x86_64-w64-mingw32/lib/../lib/libkernel32.a(dmmds00678.o)
 .idata$6       0x0000000000455786       0x1c K:/embedded/General Tools/General Tools/mingw64/bin/../lib/gcc/x86_64-w64-mingw32/6.2.0/../../../../x86_64-w64-mingw32/lib/../lib/libkernel32.a(dmmds00762.o)
 .idata$6       0x00000000004557a2       0x18 K:/embedded/General Tools/General Tools/mingw64/bin/../lib/gcc/x86_64-w64-mingw32/6.2.0/../../../../x86_64-w64-mingw32/lib/../lib/libkernel32.a(dmmds00844.o)
 .idata$6       0x00000000004557ba       0x1a K:/embedded/General Tools/General Tools/mingw64/bin/../lib/gcc/x86_64-w64-mingw32/6.2.0/../../../../x86_64-w64-mingw32/lib/../lib/libkernel32.a(dmmds00958.o)
 .idata$6       0x00000000004557d4       0x1c K:/embedded/General Tools/General Tools/mingw64/bin/../lib/gcc/x86_64-w64-mingw32/6.2.0/../../../../x86_64-w64-mingw32/lib/../lib/libkernel32.a(dmmds00959.o)
 .idata$6       0x00000000004557f0       0x10 K:/embedded/General Tools/General Tools/mingw64/bin/../lib/gcc/x86_64-w64-mingw32/6.2.0/../../../../x86_64-w64-mingw32/lib/../lib/libkernel32.a(dmmds01003.o)
 .idata$6       0x0000000000455800        0xe K:/embedded/General Tools/General Tools/mingw64/bin/../lib/gcc/x86_64-w64-mingw32/6.2.0/../../../../x86_64-w64-mingw32/lib/../lib/libkernel32.a(dmmds01024.o)
 .idata$6       0x000000000045580e       0x10 K:/embedded/General Tools/General Tools/mingw64/bin/../lib/gcc/x86_64-w64-mingw32/6.2.0/../../../../x86_64-w64-mingw32/lib/../lib/libkernel32.a(dmmds01028.o)
 .idata$6       0x000000000045581e       0x16 K:/embedded/General Tools/General Tools/mingw64/bin/../lib/gcc/x86_64-w64-mingw32/6.2.0/../../../../x86_64-w64-mingw32/lib/../lib/libkernel32.a(dmmds01029.o)
 .idata$6       0x0000000000455834       0x14 K:/embedded/General Tools/General Tools/mingw64/bin/../lib/gcc/x86_64-w64-mingw32/6.2.0/../../../../x86_64-w64-mingw32/lib/../lib/libkernel32.a(dmmds01030.o)
 .idata$6       0x0000000000455848       0x1a K:/embedded/General Tools/General Tools/mingw64/bin/../lib/gcc/x86_64-w64-mingw32/6.2.0/../../../../x86_64-w64-mingw32/lib/../lib/libkernel32.a(dmmds01037.o)
 .idata$6       0x0000000000455862       0x14 K:/embedded/General Tools/General Tools/mingw64/bin/../lib/gcc/x86_64-w64-mingw32/6.2.0/../../../../x86_64-w64-mingw32/lib/../lib/libkernel32.a(dmmds01044.o)
 .idata$6       0x0000000000455876       0x18 K:/embedded/General Tools/General Tools/mingw64/bin/../lib/gcc/x86_64-w64-mingw32/6.2.0/../../../../x86_64-w64-mingw32/lib/../lib/libkernel32.a(dmmds01067.o)
 .idata$6       0x000000000045588e        0xc K:/embedded/General Tools/General Tools/mingw64/bin/../lib/gcc/x86_64-w64-mingw32/6.2.0/../../../../x86_64-w64-mingw32/lib/../lib/libkernel32.a(dmmds01111.o)
 .idata$6       0x000000000045589a       0x14 K:/embedded/General Tools/General Tools/mingw64/bin/../lib/gcc/x86_64-w64-mingw32/6.2.0/../../../../x86_64-w64-mingw32/lib/../lib/libkernel32.a(dmmds01146.o)
 .idata$6       0x00000000004558ae       0x18 K:/embedded/General Tools/General Tools/mingw64/bin/../lib/gcc/x86_64-w64-mingw32/6.2.0/../../../../x86_64-w64-mingw32/lib/../lib/libkernel32.a(dmmds01165.o)
 .idata$6       0x00000000004558c6       0x14 K:/embedded/General Tools/General Tools/mingw64/bin/../lib/gcc/x86_64-w64-mingw32/6.2.0/../../../../x86_64-w64-mingw32/lib/../lib/libkernel32.a(dmmds01174.o)
 .idata$6       0x00000000004558da       0x1a K:/embedded/General Tools/General Tools/mingw64/bin/../lib/gcc/x86_64-w64-mingw32/6.2.0/../../../../x86_64-w64-mingw32/lib/../lib/libkernel32.a(dmmds01175.o)
 .idata$6       0x00000000004558f4       0x1e K:/embedded/General Tools/General Tools/mingw64/bin/../lib/gcc/x86_64-w64-mingw32/6.2.0/../../../../x86_64-w64-mingw32/lib/../lib/libkernel32.a(dmmds01187.o)
 .idata$6       0x0000000000455912        0x8 K:/embedded/General Tools/General Tools/mingw64/bin/../lib/gcc/x86_64-w64-mingw32/6.2.0/../../../../x86_64-w64-mingw32/lib/../lib/libkernel32.a(dmmds01200.o)
 .idata$6       0x000000000045591a       0x10 K:/embedded/General Tools/General Tools/mingw64/bin/../lib/gcc/x86_64-w64-mingw32/6.2.0/../../../../x86_64-w64-mingw32/lib/../lib/libkernel32.a(dmmds01208.o)
 .idata$6       0x000000000045592a       0x14 K:/embedded/General Tools/General Tools/mingw64/bin/../lib/gcc/x86_64-w64-mingw32/6.2.0/../../../../x86_64-w64-mingw32/lib/../lib/libkernel32.a(dmmds01214.o)
 .idata$6       0x000000000045593e       0x12 K:/embedded/General Tools/General Tools/mingw64/bin/../lib/gcc/x86_64-w64-mingw32/6.2.0/../../../../x86_64-w64-mingw32/lib/../lib/libkernel32.a(dmmds01215.o)
 .idata$6       0x0000000000455950        0xe K:/embedded/General Tools/General Tools/mingw64/bin/../lib/gcc/x86_64-w64-mingw32/6.2.0/../../../../x86_64-w64-mingw32/lib/../lib/libkernel32.a(dmmds01221.o)
 .idata$6       0x000000000045595e       0x1c K:/embedded/General Tools/General Tools/mingw64/bin/../lib/gcc/x86_64-w64-mingw32/6.2.0/../../../../x86_64-w64-mingw32/lib/../lib/libkernel32.a(dmmds01234.o)
 .idata$6       0x000000000045597a       0x12 K:/embedded/General Tools/General Tools/mingw64/bin/../lib/gcc/x86_64-w64-mingw32/6.2.0/../../../../x86_64-w64-mingw32/lib/../lib/libkernel32.a(dmmds01264.o)
 .idata$6       0x000000000045598c       0x10 K:/embedded/General Tools/General Tools/mingw64/bin/../lib/gcc/x86_64-w64-mingw32/6.2.0/../../../../x86_64-w64-mingw32/lib/../lib/libkernel32.a(dmmds01266.o)
 .idata$6       0x000000000045599c       0x1a K:/embedded/General Tools/General Tools/mingw64/bin/../lib/gcc/x86_64-w64-mingw32/6.2.0/../../../../x86_64-w64-mingw32/lib/../lib/libkernel32.a(dmmds01272.o)
 .idata$6       0x00000000004559b6       0x16 K:/embedded/General Tools/General Tools/mingw64/bin/../lib/gcc/x86_64-w64-mingw32/6.2.0/../../../../x86_64-w64-mingw32/lib/../lib/libkernel32.a(dmmds01274.o)
 .idata$6       0x00000000004559cc       0x18 K:/embedded/General Tools/General Tools/mingw64/bin/../lib/gcc/x86_64-w64-mingw32/6.2.0/../../../../x86_64-w64-mingw32/lib/../lib/libmsvcrt.a(dekes00055.o)
 .idata$6       0x00000000004559e4        0xe K:/embedded/General Tools/General Tools/mingw64/bin/../lib/gcc/x86_64-w64-mingw32/6.2.0/../../../../x86_64-w64-mingw32/lib/../lib/libmsvcrt.a(dekes00078.o)
 .idata$6       0x00000000004559f2       0x10 K:/embedded/General Tools/General Tools/mingw64/bin/../lib/gcc/x86_64-w64-mingw32/6.2.0/../../../../x86_64-w64-mingw32/lib/../lib/libmsvcrt.a(dekes00081.o)
 .idata$6       0x0000000000455a02        0xc K:/embedded/General Tools/General Tools/mingw64/bin/../lib/gcc/x86_64-w64-mingw32/6.2.0/../../../../x86_64-w64-mingw32/lib/../lib/libmsvcrt.a(dekes00082.o)
 .idata$6       0x0000000000455a0e        0xe K:/embedded/General Tools/General Tools/mingw64/bin/../lib/gcc/x86_64-w64-mingw32/6.2.0/../../../../x86_64-w64-mingw32/lib/../lib/libmsvcrt.a(dekes00083.o)
 .idata$6       0x0000000000455a1c       0x10 K:/embedded/General Tools/General Tools/mingw64/bin/../lib/gcc/x86_64-w64-mingw32/6.2.0/../../../../x86_64-w64-mingw32/lib/../lib/libmsvcrt.a(dekes00091.o)
 .idata$6       0x0000000000455a2c       0x12 K:/embedded/General Tools/General Tools/mingw64/bin/../lib/gcc/x86_64-w64-mingw32/6.2.0/../../../../x86_64-w64-mingw32/lib/../lib/libmsvcrt.a(dekes00097.o)
 .idata$6       0x0000000000455a3e       0x14 K:/embedded/General Tools/General Tools/mingw64/bin/../lib/gcc/x86_64-w64-mingw32/6.2.0/../../../../x86_64-w64-mingw32/lib/../lib/libmsvcrt.a(dekes00099.o)
 .idata$6       0x0000000000455a52        0xa K:/embedded/General Tools/General Tools/mingw64/bin/../lib/gcc/x86_64-w64-mingw32/6.2.0/../../../../x86_64-w64-mingw32/lib/../lib/libmsvcrt.a(dekes00116.o)
 .idata$6       0x0000000000455a5c        0xe K:/embedded/General Tools/General Tools/mingw64/bin/../lib/gcc/x86_64-w64-mingw32/6.2.0/../../../../x86_64-w64-mingw32/lib/../lib/libmsvcrt.a(dekes00123.o)
 .idata$6       0x0000000000455a6a        0xa K:/embedded/General Tools/General Tools/mingw64/bin/../lib/gcc/x86_64-w64-mingw32/6.2.0/../../../../x86_64-w64-mingw32/lib/../lib/libmsvcrt.a(dekes00141.o)
 .idata$6       0x0000000000455a74        0xa K:/embedded/General Tools/General Tools/mingw64/bin/../lib/gcc/x86_64-w64-mingw32/6.2.0/../../../../x86_64-w64-mingw32/lib/../lib/libmsvcrt.a(dekes00252.o)
 .idata$6       0x0000000000455a7e        0xc K:/embedded/General Tools/General Tools/mingw64/bin/../lib/gcc/x86_64-w64-mingw32/6.2.0/../../../../x86_64-w64-mingw32/lib/../lib/libmsvcrt.a(dekes00330.o)
 .idata$6       0x0000000000455a8a        0x8 K:/embedded/General Tools/General Tools/mingw64/bin/../lib/gcc/x86_64-w64-mingw32/6.2.0/../../../../x86_64-w64-mingw32/lib/../lib/libmsvcrt.a(dekes00438.o)
 .idata$6       0x0000000000455a92        0xa K:/embedded/General Tools/General Tools/mingw64/bin/../lib/gcc/x86_64-w64-mingw32/6.2.0/../../../../x86_64-w64-mingw32/lib/../lib/libmsvcrt.a(dekes00611.o)
 .idata$6       0x0000000000455a9c        0xa K:/embedded/General Tools/General Tools/mingw64/bin/../lib/gcc/x86_64-w64-mingw32/6.2.0/../../../../x86_64-w64-mingw32/lib/../lib/libmsvcrt.a(dekes00820.o)
 .idata$6       0x0000000000455aa6        0x8 K:/embedded/General Tools/General Tools/mingw64/bin/../lib/gcc/x86_64-w64-mingw32/6.2.0/../../../../x86_64-w64-mingw32/lib/../lib/libmsvcrt.a(dekes01028.o)
 .idata$6       0x0000000000455aae        0xa K:/embedded/General Tools/General Tools/mingw64/bin/../lib/gcc/x86_64-w64-mingw32/6.2.0/../../../../x86_64-w64-mingw32/lib/../lib/libmsvcrt.a(dekes01048.o)
 .idata$6       0x0000000000455ab8        0x8 K:/embedded/General Tools/General Tools/mingw64/bin/../lib/gcc/x86_64-w64-mingw32/6.2.0/../../../../x86_64-w64-mingw32/lib/../lib/libmsvcrt.a(dekes01061.o)
 .idata$6       0x0000000000455ac0        0xa K:/embedded/General Tools/General Tools/mingw64/bin/../lib/gcc/x86_64-w64-mingw32/6.2.0/../../../../x86_64-w64-mingw32/lib/../lib/libmsvcrt.a(dekes01065.o)
 .idata$6       0x0000000000455aca        0xa K:/embedded/General Tools/General Tools/mingw64/bin/../lib/gcc/x86_64-w64-mingw32/6.2.0/../../../../x86_64-w64-mingw32/lib/../lib/libmsvcrt.a(dekes01068.o)
 .idata$6       0x0000000000455ad4        0x8 K:/embedded/General Tools/General Tools/mingw64/bin/../lib/gcc/x86_64-w64-mingw32/6.2.0/../../../../x86_64-w64-mingw32/lib/../lib/libmsvcrt.a(dekes01078.o)
 .idata$6       0x0000000000455adc        0xa K:/embedded/General Tools/General Tools/mingw64/bin/../lib/gcc/x86_64-w64-mingw32/6.2.0/../../../../x86_64-w64-mingw32/lib/../lib/libmsvcrt.a(dekes01080.o)
 .idata$6       0x0000000000455ae6        0x8 K:/embedded/General Tools/General Tools/mingw64/bin/../lib/gcc/x86_64-w64-mingw32/6.2.0/../../../../x86_64-w64-mingw32/lib/../lib/libmsvcrt.a(dekes01087.o)
 .idata$6       0x0000000000455aee        0xa K:/embedded/General Tools/General Tools/mingw64/bin/../lib/gcc/x86_64-w64-mingw32/6.2.0/../../../../x86_64-w64-mingw32/lib/../lib/libmsvcrt.a(dekes01099.o)
 .idata$6       0x0000000000455af8        0xa K:/embedded/General Tools/General Tools/mingw64/bin/../lib/gcc/x86_64-w64-mingw32/6.2.0/../../../../x86_64-w64-mingw32/lib/../lib/libmsvcrt.a(dekes01146.o)
 .idata$6       0x0000000000455b02        0xa K:/embedded/General Tools/General Tools/mingw64/bin/../lib/gcc/x86_64-w64-mingw32/6.2.0/../../../../x86_64-w64-mingw32/lib/../lib/libmsvcrt.a(dekes01153.o)
 .idata$6       0x0000000000455b0c        0xa K:/embedded/General Tools/General Tools/mingw64/bin/../lib/gcc/x86_64-w64-mingw32/6.2.0/../../../../x86_64-w64-mingw32/lib/../lib/libmsvcrt.a(dekes01154.o)
 .idata$6       0x0000000000455b16        0xa K:/embedded/General Tools/General Tools/mingw64/bin/../lib/gcc/x86_64-w64-mingw32/6.2.0/../../../../x86_64-w64-mingw32/lib/../lib/libmsvcrt.a(dekes01156.o)
 .idata$6       0x0000000000455b20        0xa K:/embedded/General Tools/General Tools/mingw64/bin/../lib/gcc/x86_64-w64-mingw32/6.2.0/../../../../x86_64-w64-mingw32/lib/../lib/libmsvcrt.a(dekes01163.o)
 .idata$6       0x0000000000455b2a        0xa K:/embedded/General Tools/General Tools/mingw64/bin/../lib/gcc/x86_64-w64-mingw32/6.2.0/../../../../x86_64-w64-mingw32/lib/../lib/libmsvcrt.a(dekes01166.o)
 .idata$6       0x0000000000455b34        0x8 K:/embedded/General Tools/General Tools/mingw64/bin/../lib/gcc/x86_64-w64-mingw32/6.2.0/../../../../x86_64-w64-mingw32/lib/../lib/libmsvcrt.a(dekes01167.o)
 .idata$6       0x0000000000455b3c        0x8 K:/embedded/General Tools/General Tools/mingw64/bin/../lib/gcc/x86_64-w64-mingw32/6.2.0/../../../../x86_64-w64-mingw32/lib/../lib/libmsvcrt.a(dekes01173.o)
 .idata$6       0x0000000000455b44        0xa K:/embedded/General Tools/General Tools/mingw64/bin/../lib/gcc/x86_64-w64-mingw32/6.2.0/../../../../x86_64-w64-mingw32/lib/../lib/libmsvcrt.a(dekes01183.o)
 .idata$6       0x0000000000455b4e        0xa K:/embedded/General Tools/General Tools/mingw64/bin/../lib/gcc/x86_64-w64-mingw32/6.2.0/../../../../x86_64-w64-mingw32/lib/../lib/libmsvcrt.a(dekes01184.o)
 .idata$6       0x0000000000455b58        0xa K:/embedded/General Tools/General Tools/mingw64/bin/../lib/gcc/x86_64-w64-mingw32/6.2.0/../../../../x86_64-w64-mingw32/lib/../lib/libmsvcrt.a(dekes01189.o)
 .idata$6       0x0000000000455b62        0xa K:/embedded/General Tools/General Tools/mingw64/bin/../lib/gcc/x86_64-w64-mingw32/6.2.0/../../../../x86_64-w64-mingw32/lib/../lib/libmsvcrt.a(dekes01198.o)
 .idata$6       0x0000000000455b6c        0xa K:/embedded/General Tools/General Tools/mingw64/bin/../lib/gcc/x86_64-w64-mingw32/6.2.0/../../../../x86_64-w64-mingw32/lib/../lib/libmsvcrt.a(dekes01205.o)
 .idata$6       0x0000000000455b76        0xa K:/embedded/General Tools/General Tools/mingw64/bin/../lib/gcc/x86_64-w64-mingw32/6.2.0/../../../../x86_64-w64-mingw32/lib/../lib/libmsvcrt.a(dekes01208.o)
 .idata$6       0x0000000000455b80        0xc K:/embedded/General Tools/General Tools/mingw64/bin/../lib/gcc/x86_64-w64-mingw32/6.2.0/../../../../x86_64-w64-mingw32/lib/../lib/libmsvcrt.a(dekes01240.o)
 .idata$6       0x0000000000455b8c       0x12 K:/embedded/General Tools/General Tools/mingw64/bin/../lib/gcc/x86_64-w64-mingw32/6.2.0/../../../../x86_64-w64-mingw32/lib/../lib/libwinmm.a(dmces00149.o)
 .idata$6       0x0000000000455b9e       0x10 K:/embedded/General Tools/General Tools/mingw64/bin/../lib/gcc/x86_64-w64-mingw32/6.2.0/../../../../x86_64-w64-mingw32/lib/../lib/libwinmm.a(dmces00150.o)
 .idata$6       0x0000000000455bae       0x12 K:/embedded/General Tools/General Tools/mingw64/bin/../lib/gcc/x86_64-w64-mingw32/6.2.0/../../../../x86_64-w64-mingw32/lib/../lib/libwinmm.a(dmces00151.o)
 SORT(*)(.idata$7)
 .idata$7       0x0000000000455bc0        0x4 K:/embedded/General Tools/General Tools/mingw64/bin/../lib/gcc/x86_64-w64-mingw32/6.2.0/../../../../x86_64-w64-mingw32/lib/../lib/libkernel32.a(dmmds00085.o)
 .idata$7       0x0000000000455bc4        0x4 K:/embedded/General Tools/General Tools/mingw64/bin/../lib/gcc/x86_64-w64-mingw32/6.2.0/../../../../x86_64-w64-mingw32/lib/../lib/libkernel32.a(dmmds00134.o)
 .idata$7       0x0000000000455bc8        0x4 K:/embedded/General Tools/General Tools/mingw64/bin/../lib/gcc/x86_64-w64-mingw32/6.2.0/../../../../x86_64-w64-mingw32/lib/../lib/libkernel32.a(dmmds00160.o)
 .idata$7       0x0000000000455bcc        0x4 K:/embedded/General Tools/General Tools/mingw64/bin/../lib/gcc/x86_64-w64-mingw32/6.2.0/../../../../x86_64-w64-mingw32/lib/../lib/libkernel32.a(dmmds00186.o)
 .idata$7       0x0000000000455bd0        0x4 K:/embedded/General Tools/General Tools/mingw64/bin/../lib/gcc/x86_64-w64-mingw32/6.2.0/../../../../x86_64-w64-mingw32/lib/../lib/libkernel32.a(dmmds00216.o)
 .idata$7       0x0000000000455bd4        0x4 K:/embedded/General Tools/General Tools/mingw64/bin/../lib/gcc/x86_64-w64-mingw32/6.2.0/../../../../x86_64-w64-mingw32/lib/../lib/libkernel32.a(dmmds00249.o)
 .idata$7       0x0000000000455bd8        0x4 K:/embedded/General Tools/General Tools/mingw64/bin/../lib/gcc/x86_64-w64-mingw32/6.2.0/../../../../x86_64-w64-mingw32/lib/../lib/libkernel32.a(dmmds00295.o)
 .idata$7       0x0000000000455bdc        0x4 K:/embedded/General Tools/General Tools/mingw64/bin/../lib/gcc/x86_64-w64-mingw32/6.2.0/../../../../x86_64-w64-mingw32/lib/../lib/libkernel32.a(dmmds00462.o)
 .idata$7       0x0000000000455be0        0x4 K:/embedded/General Tools/General Tools/mingw64/bin/../lib/gcc/x86_64-w64-mingw32/6.2.0/../../../../x86_64-w64-mingw32/lib/../lib/libkernel32.a(dmmds00463.o)
 .idata$7       0x0000000000455be4        0x4 K:/embedded/General Tools/General Tools/mingw64/bin/../lib/gcc/x86_64-w64-mingw32/6.2.0/../../../../x86_64-w64-mingw32/lib/../lib/libkernel32.a(dmmds00466.o)
 .idata$7       0x0000000000455be8        0x4 K:/embedded/General Tools/General Tools/mingw64/bin/../lib/gcc/x86_64-w64-mingw32/6.2.0/../../../../x86_64-w64-mingw32/lib/../lib/libkernel32.a(dmmds00467.o)
 .idata$7       0x0000000000455bec        0x4 K:/embedded/General Tools/General Tools/mingw64/bin/../lib/gcc/x86_64-w64-mingw32/6.2.0/../../../../x86_64-w64-mingw32/lib/../lib/libkernel32.a(dmmds00529.o)
 .idata$7       0x0000000000455bf0        0x4 K:/embedded/General Tools/General Tools/mingw64/bin/../lib/gcc/x86_64-w64-mingw32/6.2.0/../../../../x86_64-w64-mingw32/lib/../lib/libkernel32.a(dmmds00549.o)
 .idata$7       0x0000000000455bf4        0x4 K:/embedded/General Tools/General Tools/mingw64/bin/../lib/gcc/x86_64-w64-mingw32/6.2.0/../../../../x86_64-w64-mingw32/lib/../lib/libkernel32.a(dmmds00599.o)
 .idata$7       0x0000000000455bf8        0x4 K:/embedded/General Tools/General Tools/mingw64/bin/../lib/gcc/x86_64-w64-mingw32/6.2.0/../../../../x86_64-w64-mingw32/lib/../lib/libkernel32.a(dmmds00628.o)
 .idata$7       0x0000000000455bfc        0x4 K:/embedded/General Tools/General Tools/mingw64/bin/../lib/gcc/x86_64-w64-mingw32/6.2.0/../../../../x86_64-w64-mingw32/lib/../lib/libkernel32.a(dmmds00645.o)
 .idata$7       0x0000000000455c00        0x4 K:/embedded/General Tools/General Tools/mingw64/bin/../lib/gcc/x86_64-w64-mingw32/6.2.0/../../../../x86_64-w64-mingw32/lib/../lib/libkernel32.a(dmmds00651.o)
 .idata$7       0x0000000000455c04        0x4 K:/embedded/General Tools/General Tools/mingw64/bin/../lib/gcc/x86_64-w64-mingw32/6.2.0/../../../../x86_64-w64-mingw32/lib/../lib/libkernel32.a(dmmds00665.o)
 .idata$7       0x0000000000455c08        0x4 K:/embedded/General Tools/General Tools/mingw64/bin/../lib/gcc/x86_64-w64-mingw32/6.2.0/../../../../x86_64-w64-mingw32/lib/../lib/libkernel32.a(dmmds00678.o)
 .idata$7       0x0000000000455c0c        0x4 K:/embedded/General Tools/General Tools/mingw64/bin/../lib/gcc/x86_64-w64-mingw32/6.2.0/../../../../x86_64-w64-mingw32/lib/../lib/libkernel32.a(dmmds00762.o)
 .idata$7       0x0000000000455c10        0x4 K:/embedded/General Tools/General Tools/mingw64/bin/../lib/gcc/x86_64-w64-mingw32/6.2.0/../../../../x86_64-w64-mingw32/lib/../lib/libkernel32.a(dmmds00844.o)
 .idata$7       0x0000000000455c14        0x4 K:/embedded/General Tools/General Tools/mingw64/bin/../lib/gcc/x86_64-w64-mingw32/6.2.0/../../../../x86_64-w64-mingw32/lib/../lib/libkernel32.a(dmmds00958.o)
 .idata$7       0x0000000000455c18        0x4 K:/embedded/General Tools/General Tools/mingw64/bin/../lib/gcc/x86_64-w64-mingw32/6.2.0/../../../../x86_64-w64-mingw32/lib/../lib/libkernel32.a(dmmds00959.o)
 .idata$7       0x0000000000455c1c        0x4 K:/embedded/General Tools/General Tools/mingw64/bin/../lib/gcc/x86_64-w64-mingw32/6.2.0/../../../../x86_64-w64-mingw32/lib/../lib/libkernel32.a(dmmds01003.o)
 .idata$7       0x0000000000455c20        0x4 K:/embedded/General Tools/General Tools/mingw64/bin/../lib/gcc/x86_64-w64-mingw32/6.2.0/../../../../x86_64-w64-mingw32/lib/../lib/libkernel32.a(dmmds01024.o)
 .idata$7       0x0000000000455c24        0x4 K:/embedded/General Tools/General Tools/mingw64/bin/../lib/gcc/x86_64-w64-mingw32/6.2.0/../../../../x86_64-w64-mingw32/lib/../lib/libkernel32.a(dmmds01028.o)
 .idata$7       0x0000000000455c28        0x4 K:/embedded/General Tools/General Tools/mingw64/bin/../lib/gcc/x86_64-w64-mingw32/6.2.0/../../../../x86_64-w64-mingw32/lib/../lib/libkernel32.a(dmmds01029.o)
 .idata$7       0x0000000000455c2c        0x4 K:/embedded/General Tools/General Tools/mingw64/bin/../lib/gcc/x86_64-w64-mingw32/6.2.0/../../../../x86_64-w64-mingw32/lib/../lib/libkernel32.a(dmmds01030.o)
 .idata$7       0x0000000000455c30        0x4 K:/embedded/General Tools/General Tools/mingw64/bin/../lib/gcc/x86_64-w64-mingw32/6.2.0/../../../../x86_64-w64-mingw32/lib/../lib/libkernel32.a(dmmds01037.o)
 .idata$7       0x0000000000455c34        0x4 K:/embedded/General Tools/General Tools/mingw64/bin/../lib/gcc/x86_64-w64-mingw32/6.2.0/../../../../x86_64-w64-mingw32/lib/../lib/libkernel32.a(dmmds01044.o)
 .idata$7       0x0000000000455c38        0x4 K:/embedded/General Tools/General Tools/mingw64/bin/../lib/gcc/x86_64-w64-mingw32/6.2.0/../../../../x86_64-w64-mingw32/lib/../lib/libkernel32.a(dmmds01067.o)
 .idata$7       0x0000000000455c3c        0x4 K:/embedded/General Tools/General Tools/mingw64/bin/../lib/gcc/x86_64-w64-mingw32/6.2.0/../../../../x86_64-w64-mingw32/lib/../lib/libkernel32.a(dmmds01111.o)
 .idata$7       0x0000000000455c40        0x4 K:/embedded/General Tools/General Tools/mingw64/bin/../lib/gcc/x86_64-w64-mingw32/6.2.0/../../../../x86_64-w64-mingw32/lib/../lib/libkernel32.a(dmmds01146.o)
 .idata$7       0x0000000000455c44        0x4 K:/embedded/General Tools/General Tools/mingw64/bin/../lib/gcc/x86_64-w64-mingw32/6.2.0/../../../../x86_64-w64-mingw32/lib/../lib/libkernel32.a(dmmds01165.o)
 .idata$7       0x0000000000455c48        0x4 K:/embedded/General Tools/General Tools/mingw64/bin/../lib/gcc/x86_64-w64-mingw32/6.2.0/../../../../x86_64-w64-mingw32/lib/../lib/libkernel32.a(dmmds01174.o)
 .idata$7       0x0000000000455c4c        0x4 K:/embedded/General Tools/General Tools/mingw64/bin/../lib/gcc/x86_64-w64-mingw32/6.2.0/../../../../x86_64-w64-mingw32/lib/../lib/libkernel32.a(dmmds01175.o)
 .idata$7       0x0000000000455c50        0x4 K:/embedded/General Tools/General Tools/mingw64/bin/../lib/gcc/x86_64-w64-mingw32/6.2.0/../../../../x86_64-w64-mingw32/lib/../lib/libkernel32.a(dmmds01187.o)
 .idata$7       0x0000000000455c54        0x4 K:/embedded/General Tools/General Tools/mingw64/bin/../lib/gcc/x86_64-w64-mingw32/6.2.0/../../../../x86_64-w64-mingw32/lib/../lib/libkernel32.a(dmmds01200.o)
 .idata$7       0x0000000000455c58        0x4 K:/embedded/General Tools/General Tools/mingw64/bin/../lib/gcc/x86_64-w64-mingw32/6.2.0/../../../../x86_64-w64-mingw32/lib/../lib/libkernel32.a(dmmds01208.o)
 .idata$7       0x0000000000455c5c        0x4 K:/embedded/General Tools/General Tools/mingw64/bin/../lib/gcc/x86_64-w64-mingw32/6.2.0/../../../../x86_64-w64-mingw32/lib/../lib/libkernel32.a(dmmds01214.o)
 .idata$7       0x0000000000455c60        0x4 K:/embedded/General Tools/General Tools/mingw64/bin/../lib/gcc/x86_64-w64-mingw32/6.2.0/../../../../x86_64-w64-mingw32/lib/../lib/libkernel32.a(dmmds01215.o)
 .idata$7       0x0000000000455c64        0x4 K:/embedded/General Tools/General Tools/mingw64/bin/../lib/gcc/x86_64-w64-mingw32/6.2.0/../../../../x86_64-w64-mingw32/lib/../lib/libkernel32.a(dmmds01221.o)
 .idata$7       0x0000000000455c68        0x4 K:/embedded/General Tools/General Tools/mingw64/bin/../lib/gcc/x86_64-w64-mingw32/6.2.0/../../../../x86_64-w64-mingw32/lib/../lib/libkernel32.a(dmmds01234.o)
 .idata$7       0x0000000000455c6c        0x4 K:/embedded/General Tools/General Tools/mingw64/bin/../lib/gcc/x86_64-w64-mingw32/6.2.0/../../../../x86_64-w64-mingw32/lib/../lib/libkernel32.a(dmmds01264.o)
 .idata$7       0x0000000000455c70        0x4 K:/embedded/General Tools/General Tools/mingw64/bin/../lib/gcc/x86_64-w64-mingw32/6.2.0/../../../../x86_64-w64-mingw32/lib/../lib/libkernel32.a(dmmds01266.o)
 .idata$7       0x0000000000455c74        0x4 K:/embedded/General Tools/General Tools/mingw64/bin/../lib/gcc/x86_64-w64-mingw32/6.2.0/../../../../x86_64-w64-mingw32/lib/../lib/libkernel32.a(dmmds01272.o)
 .idata$7       0x0000000000455c78        0x4 K:/embedded/General Tools/General Tools/mingw64/bin/../lib/gcc/x86_64-w64-mingw32/6.2.0/../../../../x86_64-w64-mingw32/lib/../lib/libkernel32.a(dmmds01274.o)
 .idata$7       0x0000000000455c7c       0x10 K:/embedded/General Tools/General Tools/mingw64/bin/../lib/gcc/x86_64-w64-mingw32/6.2.0/../../../../x86_64-w64-mingw32/lib/../lib/libkernel32.a(dmmdt.o)
                0x0000000000455c7c                __lib64_libkernel32_a_iname
 .idata$7       0x0000000000455c8c        0x4 K:/embedded/General Tools/General Tools/mingw64/bin/../lib/gcc/x86_64-w64-mingw32/6.2.0/../../../../x86_64-w64-mingw32/lib/../lib/libmsvcrt.a(dekes00055.o)
 .idata$7       0x0000000000455c90        0x4 K:/embedded/General Tools/General Tools/mingw64/bin/../lib/gcc/x86_64-w64-mingw32/6.2.0/../../../../x86_64-w64-mingw32/lib/../lib/libmsvcrt.a(dekes00078.o)
 .idata$7       0x0000000000455c94        0x4 K:/embedded/General Tools/General Tools/mingw64/bin/../lib/gcc/x86_64-w64-mingw32/6.2.0/../../../../x86_64-w64-mingw32/lib/../lib/libmsvcrt.a(dekes00081.o)
 .idata$7       0x0000000000455c98        0x4 K:/embedded/General Tools/General Tools/mingw64/bin/../lib/gcc/x86_64-w64-mingw32/6.2.0/../../../../x86_64-w64-mingw32/lib/../lib/libmsvcrt.a(dekes00082.o)
 .idata$7       0x0000000000455c9c        0x4 K:/embedded/General Tools/General Tools/mingw64/bin/../lib/gcc/x86_64-w64-mingw32/6.2.0/../../../../x86_64-w64-mingw32/lib/../lib/libmsvcrt.a(dekes00083.o)
 .idata$7       0x0000000000455ca0        0x4 K:/embedded/General Tools/General Tools/mingw64/bin/../lib/gcc/x86_64-w64-mingw32/6.2.0/../../../../x86_64-w64-mingw32/lib/../lib/libmsvcrt.a(dekes00091.o)
 .idata$7       0x0000000000455ca4        0x4 K:/embedded/General Tools/General Tools/mingw64/bin/../lib/gcc/x86_64-w64-mingw32/6.2.0/../../../../x86_64-w64-mingw32/lib/../lib/libmsvcrt.a(dekes00097.o)
 .idata$7       0x0000000000455ca8        0x4 K:/embedded/General Tools/General Tools/mingw64/bin/../lib/gcc/x86_64-w64-mingw32/6.2.0/../../../../x86_64-w64-mingw32/lib/../lib/libmsvcrt.a(dekes00099.o)
 .idata$7       0x0000000000455cac        0x4 K:/embedded/General Tools/General Tools/mingw64/bin/../lib/gcc/x86_64-w64-mingw32/6.2.0/../../../../x86_64-w64-mingw32/lib/../lib/libmsvcrt.a(dekes00116.o)
 .idata$7       0x0000000000455cb0        0x4 K:/embedded/General Tools/General Tools/mingw64/bin/../lib/gcc/x86_64-w64-mingw32/6.2.0/../../../../x86_64-w64-mingw32/lib/../lib/libmsvcrt.a(dekes00123.o)
 .idata$7       0x0000000000455cb4        0x4 K:/embedded/General Tools/General Tools/mingw64/bin/../lib/gcc/x86_64-w64-mingw32/6.2.0/../../../../x86_64-w64-mingw32/lib/../lib/libmsvcrt.a(dekes00141.o)
 .idata$7       0x0000000000455cb8        0x4 K:/embedded/General Tools/General Tools/mingw64/bin/../lib/gcc/x86_64-w64-mingw32/6.2.0/../../../../x86_64-w64-mingw32/lib/../lib/libmsvcrt.a(dekes00252.o)
 .idata$7       0x0000000000455cbc        0x4 K:/embedded/General Tools/General Tools/mingw64/bin/../lib/gcc/x86_64-w64-mingw32/6.2.0/../../../../x86_64-w64-mingw32/lib/../lib/libmsvcrt.a(dekes00330.o)
 .idata$7       0x0000000000455cc0        0x4 K:/embedded/General Tools/General Tools/mingw64/bin/../lib/gcc/x86_64-w64-mingw32/6.2.0/../../../../x86_64-w64-mingw32/lib/../lib/libmsvcrt.a(dekes00438.o)
 .idata$7       0x0000000000455cc4        0x4 K:/embedded/General Tools/General Tools/mingw64/bin/../lib/gcc/x86_64-w64-mingw32/6.2.0/../../../../x86_64-w64-mingw32/lib/../lib/libmsvcrt.a(dekes00611.o)
 .idata$7       0x0000000000455cc8        0x4 K:/embedded/General Tools/General Tools/mingw64/bin/../lib/gcc/x86_64-w64-mingw32/6.2.0/../../../../x86_64-w64-mingw32/lib/../lib/libmsvcrt.a(dekes00820.o)
 .idata$7       0x0000000000455ccc        0x4 K:/embedded/General Tools/General Tools/mingw64/bin/../lib/gcc/x86_64-w64-mingw32/6.2.0/../../../../x86_64-w64-mingw32/lib/../lib/libmsvcrt.a(dekes01028.o)
 .idata$7       0x0000000000455cd0        0x4 K:/embedded/General Tools/General Tools/mingw64/bin/../lib/gcc/x86_64-w64-mingw32/6.2.0/../../../../x86_64-w64-mingw32/lib/../lib/libmsvcrt.a(dekes01048.o)
 .idata$7       0x0000000000455cd4        0x4 K:/embedded/General Tools/General Tools/mingw64/bin/../lib/gcc/x86_64-w64-mingw32/6.2.0/../../../../x86_64-w64-mingw32/lib/../lib/libmsvcrt.a(dekes01061.o)
 .idata$7       0x0000000000455cd8        0x4 K:/embedded/General Tools/General Tools/mingw64/bin/../lib/gcc/x86_64-w64-mingw32/6.2.0/../../../../x86_64-w64-mingw32/lib/../lib/libmsvcrt.a(dekes01065.o)
 .idata$7       0x0000000000455cdc        0x4 K:/embedded/General Tools/General Tools/mingw64/bin/../lib/gcc/x86_64-w64-mingw32/6.2.0/../../../../x86_64-w64-mingw32/lib/../lib/libmsvcrt.a(dekes01068.o)
 .idata$7       0x0000000000455ce0        0x4 K:/embedded/General Tools/General Tools/mingw64/bin/../lib/gcc/x86_64-w64-mingw32/6.2.0/../../../../x86_64-w64-mingw32/lib/../lib/libmsvcrt.a(dekes01078.o)
 .idata$7       0x0000000000455ce4        0x4 K:/embedded/General Tools/General Tools/mingw64/bin/../lib/gcc/x86_64-w64-mingw32/6.2.0/../../../../x86_64-w64-mingw32/lib/../lib/libmsvcrt.a(dekes01080.o)
 .idata$7       0x0000000000455ce8        0x4 K:/embedded/General Tools/General Tools/mingw64/bin/../lib/gcc/x86_64-w64-mingw32/6.2.0/../../../../x86_64-w64-mingw32/lib/../lib/libmsvcrt.a(dekes01087.o)
 .idata$7       0x0000000000455cec        0x4 K:/embedded/General Tools/General Tools/mingw64/bin/../lib/gcc/x86_64-w64-mingw32/6.2.0/../../../../x86_64-w64-mingw32/lib/../lib/libmsvcrt.a(dekes01099.o)
 .idata$7       0x0000000000455cf0        0x4 K:/embedded/General Tools/General Tools/mingw64/bin/../lib/gcc/x86_64-w64-mingw32/6.2.0/../../../../x86_64-w64-mingw32/lib/../lib/libmsvcrt.a(dekes01146.o)
 .idata$7       0x0000000000455cf4        0x4 K:/embedded/General Tools/General Tools/mingw64/bin/../lib/gcc/x86_64-w64-mingw32/6.2.0/../../../../x86_64-w64-mingw32/lib/../lib/libmsvcrt.a(dekes01153.o)
 .idata$7       0x0000000000455cf8        0x4 K:/embedded/General Tools/General Tools/mingw64/bin/../lib/gcc/x86_64-w64-mingw32/6.2.0/../../../../x86_64-w64-mingw32/lib/../lib/libmsvcrt.a(dekes01154.o)
 .idata$7       0x0000000000455cfc        0x4 K:/embedded/General Tools/General Tools/mingw64/bin/../lib/gcc/x86_64-w64-mingw32/6.2.0/../../../../x86_64-w64-mingw32/lib/../lib/libmsvcrt.a(dekes01156.o)
 .idata$7       0x0000000000455d00        0x4 K:/embedded/General Tools/General Tools/mingw64/bin/../lib/gcc/x86_64-w64-mingw32/6.2.0/../../../../x86_64-w64-mingw32/lib/../lib/libmsvcrt.a(dekes01163.o)
 .idata$7       0x0000000000455d04        0x4 K:/embedded/General Tools/General Tools/mingw64/bin/../lib/gcc/x86_64-w64-mingw32/6.2.0/../../../../x86_64-w64-mingw32/lib/../lib/libmsvcrt.a(dekes01166.o)
 .idata$7       0x0000000000455d08        0x4 K:/embedded/General Tools/General Tools/mingw64/bin/../lib/gcc/x86_64-w64-mingw32/6.2.0/../../../../x86_64-w64-mingw32/lib/../lib/libmsvcrt.a(dekes01167.o)
 .idata$7       0x0000000000455d0c        0x4 K:/embedded/General Tools/General Tools/mingw64/bin/../lib/gcc/x86_64-w64-mingw32/6.2.0/../../../../x86_64-w64-mingw32/lib/../lib/libmsvcrt.a(dekes01173.o)
 .idata$7       0x0000000000455d10        0x4 K:/embedded/General Tools/General Tools/mingw64/bin/../lib/gcc/x86_64-w64-mingw32/6.2.0/../../../../x86_64-w64-mingw32/lib/../lib/libmsvcrt.a(dekes01183.o)
 .idata$7       0x0000000000455d14        0x4 K:/embedded/General Tools/General Tools/mingw64/bin/../lib/gcc/x86_64-w64-mingw32/6.2.0/../../../../x86_64-w64-mingw32/lib/../lib/libmsvcrt.a(dekes01184.o)
 .idata$7       0x0000000000455d18        0x4 K:/embedded/General Tools/General Tools/mingw64/bin/../lib/gcc/x86_64-w64-mingw32/6.2.0/../../../../x86_64-w64-mingw32/lib/../lib/libmsvcrt.a(dekes01189.o)
 .idata$7       0x0000000000455d1c        0x4 K:/embedded/General Tools/General Tools/mingw64/bin/../lib/gcc/x86_64-w64-mingw32/6.2.0/../../../../x86_64-w64-mingw32/lib/../lib/libmsvcrt.a(dekes01198.o)
 .idata$7       0x0000000000455d20        0x4 K:/embedded/General Tools/General Tools/mingw64/bin/../lib/gcc/x86_64-w64-mingw32/6.2.0/../../../../x86_64-w64-mingw32/lib/../lib/libmsvcrt.a(dekes01205.o)
 .idata$7       0x0000000000455d24        0x4 K:/embedded/General Tools/General Tools/mingw64/bin/../lib/gcc/x86_64-w64-mingw32/6.2.0/../../../../x86_64-w64-mingw32/lib/../lib/libmsvcrt.a(dekes01208.o)
 .idata$7       0x0000000000455d28        0x4 K:/embedded/General Tools/General Tools/mingw64/bin/../lib/gcc/x86_64-w64-mingw32/6.2.0/../../../../x86_64-w64-mingw32/lib/../lib/libmsvcrt.a(dekes01240.o)
 .idata$7       0x0000000000455d2c        0xc K:/embedded/General Tools/General Tools/mingw64/bin/../lib/gcc/x86_64-w64-mingw32/6.2.0/../../../../x86_64-w64-mingw32/lib/../lib/libmsvcrt.a(deket.o)
                0x0000000000455d2c                __lib64_libmsvcrt_a_iname
 .idata$7       0x0000000000455d38        0x4 K:/embedded/General Tools/General Tools/mingw64/bin/../lib/gcc/x86_64-w64-mingw32/6.2.0/../../../../x86_64-w64-mingw32/lib/../lib/libwinmm.a(dmces00149.o)
 .idata$7       0x0000000000455d3c        0x4 K:/embedded/General Tools/General Tools/mingw64/bin/../lib/gcc/x86_64-w64-mingw32/6.2.0/../../../../x86_64-w64-mingw32/lib/../lib/libwinmm.a(dmces00150.o)
 .idata$7       0x0000000000455d40        0x4 K:/embedded/General Tools/General Tools/mingw64/bin/../lib/gcc/x86_64-w64-mingw32/6.2.0/../../../../x86_64-w64-mingw32/lib/../lib/libwinmm.a(dmces00151.o)
 .idata$7       0x0000000000455d44        0xc K:/embedded/General Tools/General Tools/mingw64/bin/../lib/gcc/x86_64-w64-mingw32/6.2.0/../../../../x86_64-w64-mingw32/lib/../lib/libwinmm.a(dmcet.o)
                0x0000000000455d44                __lib64_libwinmm_a_iname

.CRT            0x0000000000456000      0x200
                0x0000000000456000                ___crt_xc_start__ = .
 *(SORT(.CRT$XC*))
 .CRT$XCA       0x0000000000456000        0x8 K:/embedded/General Tools/General Tools/mingw64/bin/../lib/gcc/x86_64-w64-mingw32/6.2.0/../../../../x86_64-w64-mingw32/lib/../lib/libmingw32.a(lib64_libmingw32_a-cinitexe.o)
                0x0000000000456000                __xc_a
 .CRT$XCAA      0x0000000000456008        0x8 K:/embedded/General Tools/General Tools/mingw64/bin/../lib/gcc/x86_64-w64-mingw32/6.2.0/../../../../x86_64-w64-mingw32/lib/../lib/crt2.o
                0x0000000000456008                mingw_pcppinit
 .CRT$XCZ       0x0000000000456010        0x8 K:/embedded/General Tools/General Tools/mingw64/bin/../lib/gcc/x86_64-w64-mingw32/6.2.0/../../../../x86_64-w64-mingw32/lib/../lib/libmingw32.a(lib64_libmingw32_a-cinitexe.o)
                0x0000000000456010                __xc_z
                0x0000000000456018                ___crt_xc_end__ = .
                0x0000000000456018                ___crt_xi_start__ = .
 *(SORT(.CRT$XI*))
 .CRT$XIA       0x0000000000456018        0x8 K:/embedded/General Tools/General Tools/mingw64/bin/../lib/gcc/x86_64-w64-mingw32/6.2.0/../../../../x86_64-w64-mingw32/lib/../lib/libmingw32.a(lib64_libmingw32_a-cinitexe.o)
                0x0000000000456018                __xi_a
 .CRT$XIAA      0x0000000000456020        0x8 K:/embedded/General Tools/General Tools/mingw64/bin/../lib/gcc/x86_64-w64-mingw32/6.2.0/../../../../x86_64-w64-mingw32/lib/../lib/crt2.o
                0x0000000000456020                mingw_pcinit
 .CRT$XIC       0x0000000000456028        0x8 K:/embedded/General Tools/General Tools/mingw64/bin/../lib/gcc/x86_64-w64-mingw32/6.2.0/../../../../x86_64-w64-mingw32/lib/../lib/libmingw32.a(lib64_libmingw32_a-charmax.o)
                0x0000000000456028                __mingw_pinit
 .CRT$XIZ       0x0000000000456030        0x8 K:/embedded/General Tools/General Tools/mingw64/bin/../lib/gcc/x86_64-w64-mingw32/6.2.0/../../../../x86_64-w64-mingw32/lib/../lib/libmingw32.a(lib64_libmingw32_a-cinitexe.o)
                0x0000000000456030                __xi_z
                0x0000000000456038                ___crt_xi_end__ = .
                0x0000000000456038                ___crt_xl_start__ = .
 *(SORT(.CRT$XL*))
 .CRT$XLA       0x0000000000456038        0x8 K:/embedded/General Tools/General Tools/mingw64/bin/../lib/gcc/x86_64-w64-mingw32/6.2.0/../../../../x86_64-w64-mingw32/lib/../lib/libmingw32.a(lib64_libmingw32_a-tlssup.o)
                0x0000000000456038                __xl_a
 .CRT$XLC       0x0000000000456040        0x8 K:/embedded/General Tools/General Tools/mingw64/bin/../lib/gcc/x86_64-w64-mingw32/6.2.0/../../../../x86_64-w64-mingw32/lib/../lib/libmingw32.a(lib64_libmingw32_a-tlssup.o)
                0x0000000000456040                __xl_c
 .CRT$XLD       0x0000000000456048        0x8 K:/embedded/General Tools/General Tools/mingw64/bin/../lib/gcc/x86_64-w64-mingw32/6.2.0/../../../../x86_64-w64-mingw32/lib/../lib/libmingw32.a(lib64_libmingw32_a-tlssup.o)
                0x0000000000456048                __xl_d
 .CRT$XLZ       0x0000000000456050        0x8 K:/embedded/General Tools/General Tools/mingw64/bin/../lib/gcc/x86_64-w64-mingw32/6.2.0/../../../../x86_64-w64-mingw32/lib/../lib/libmingw32.a(lib64_libmingw32_a-tlssup.o)
                0x0000000000456050                __xl_z
                0x0000000000456058                ___crt_xp_start__ = .
 *(SORT(.CRT$XP*))
                0x0000000000456058                ___crt_xp_end__ = .
                0x0000000000456058                ___crt_xt_start__ = .
 *(SORT(.CRT$XT*))
                0x0000000000456058                ___crt_xt_end__ = .
 .CRT$XDA       0x0000000000456058        0x8 K:/embedded/General Tools/General Tools/mingw64/bin/../lib/gcc/x86_64-w64-mingw32/6.2.0/../../../../x86_64-w64-mingw32/lib/../lib/libmingw32.a(lib64_libmingw32_a-tlssup.o)
 .CRT$XDZ       0x0000000000456060        0x8 K:/embedded/General Tools/General Tools/mingw64/bin/../lib/gcc/x86_64-w64-mingw32/6.2.0/../../../../x86_64-w64-mingw32/lib/../lib/libmingw32.a(lib64_libmingw32_a-tlssup.o)

.tls            0x0000000000457000      0x200
                0x0000000000457000                ___tls_start__ = .
 *(.tls$AAA)
 .tls$AAA       0x0000000000457000        0x8 K:/embedded/General Tools/General Tools/mingw64/bin/../lib/gcc/x86_64-w64-mingw32/6.2.0/../../../../x86_64-w64-mingw32/lib/../lib/libmingw32.a(lib64_libmingw32_a-tlssup.o)
                0x0000000000457000                _tls_start
 *(.tls)
 *fill*         0x0000000000457008       0x18 
 .tls           0x0000000000457020       0x40 K:/embedded/General Tools/General Tools/mingw64/bin/../lib/gcc/x86_64-w64-mingw32/6.2.0/../../../../x86_64-w64-mingw32/lib/../lib/libmingw32.a(lib64_libmingw32_a-tlssup.o)
                0x0000000000457020                _tls_used
 *(.tls$)
 *(SORT(.tls$*))
 .tls$ZZZ       0x0000000000457060        0x8 K:/embedded/General Tools/General Tools/mingw64/bin/../lib/gcc/x86_64-w64-mingw32/6.2.0/../../../../x86_64-w64-mingw32/lib/../lib/libmingw32.a(lib64_libmingw32_a-tlssup.o)
                0x0000000000457060                _tls_end
 *(.tls$ZZZ)
                0x0000000000457068                ___tls_end__ = .

.endjunk        0x0000000000458000        0x0
                0x0000000000458000                PROVIDE (end, .)
                0x0000000000458000                PROVIDE (_end, .)
                0x0000000000458000                __end__ = .

.rsrc
 *(.rsrc)
 *(.rsrc$*)

.reloc
 *(.reloc)

.stab
 *(.stab)

.stabstr
 *(.stabstr)

.debug_aranges  0x0000000000458000      0xa00
 *(.debug_aranges)
 .debug_aranges
                0x0000000000458000       0x30 DemosModifiedForLowTickRate\recmutex.o
 .debug_aranges
                0x0000000000458030       0x30 FreeRTOS+Trace Recorder\trcKernelPort.o
 .debug_aranges
                0x0000000000458060       0x30 FreeRTOS+Trace Recorder\trcSnapshotRecorder.o
 .debug_aranges
                0x0000000000458090       0x20 FreeRTOS+Trace Recorder\trcStreamingRecorder.o
 .debug_aranges
                0x00000000004580b0       0x20 FreeRTOS_Source\croutine.o
 .debug_aranges
                0x00000000004580d0       0x30 FreeRTOS_Source\event_groups.o
 .debug_aranges
                0x0000000000458100       0x30 FreeRTOS_Source\list.o
 .debug_aranges
                0x0000000000458130       0x30 FreeRTOS_Source\portable\MSVC-MingW\port.o
 .debug_aranges
                0x0000000000458160       0x30 FreeRTOS_Source\portable\MemMang\heap_5.o
 .debug_aranges
                0x0000000000458190       0x30 FreeRTOS_Source\queue.o
 .debug_aranges
                0x00000000004581c0       0x30 FreeRTOS_Source\stream_buffer.o
 .debug_aranges
                0x00000000004581f0       0x30 FreeRTOS_Source\tasks.o
 .debug_aranges
                0x0000000000458220       0x30 FreeRTOS_Source\timers.o
 .debug_aranges
                0x0000000000458250       0x30 Run-time-stats-utils.o
 .debug_aranges
                0x0000000000458280       0x30 Standard_Demo_Tasks\AbortDelay.o
 .debug_aranges
                0x00000000004582b0       0x30 Standard_Demo_Tasks\BlockQ.o
 .debug_aranges
                0x00000000004582e0       0x30 Standard_Demo_Tasks\EventGroupsDemo.o
 .debug_aranges
                0x0000000000458310       0x30 Standard_Demo_Tasks\GenQTest.o
 .debug_aranges
                0x0000000000458340       0x30 Standard_Demo_Tasks\IntSemTest.o
 .debug_aranges
                0x0000000000458370       0x30 Standard_Demo_Tasks\MessageBufferAMP.o
 .debug_aranges
                0x00000000004583a0       0x30 Standard_Demo_Tasks\MessageBufferDemo.o
 .debug_aranges
                0x00000000004583d0       0x30 Standard_Demo_Tasks\PollQ.o
 .debug_aranges
                0x0000000000458400       0x30 Standard_Demo_Tasks\QPeek.o
 .debug_aranges
                0x0000000000458430       0x30 Standard_Demo_Tasks\QueueOverwrite.o
 .debug_aranges
                0x0000000000458460       0x30 Standard_Demo_Tasks\QueueSet.o
 .debug_aranges
                0x0000000000458490       0x30 Standard_Demo_Tasks\QueueSetPolling.o
 .debug_aranges
                0x00000000004584c0       0x30 Standard_Demo_Tasks\StaticAllocation.o
 .debug_aranges
                0x00000000004584f0       0x30 Standard_Demo_Tasks\StreamBufferDemo.o
 .debug_aranges
                0x0000000000458520       0x30 Standard_Demo_Tasks\StreamBufferInterrupt.o
 .debug_aranges
                0x0000000000458550       0x30 Standard_Demo_Tasks\TaskNotify.o
 .debug_aranges
                0x0000000000458580       0x30 Standard_Demo_Tasks\TimerDemo.o
 .debug_aranges
                0x00000000004585b0       0x30 Standard_Demo_Tasks\blocktim.o
 .debug_aranges
                0x00000000004585e0       0x30 Standard_Demo_Tasks\countsem.o
 .debug_aranges
                0x0000000000458610       0x30 Standard_Demo_Tasks\death.o
 .debug_aranges
                0x0000000000458640       0x30 Standard_Demo_Tasks\dynamic.o
 .debug_aranges
                0x0000000000458670       0x30 Standard_Demo_Tasks\flop.o
 .debug_aranges
                0x00000000004586a0       0x30 Standard_Demo_Tasks\integer.o
 .debug_aranges
                0x00000000004586d0       0x30 Standard_Demo_Tasks\semtest.o
 .debug_aranges
                0x0000000000458700       0x30 code_coverage_additions.o
 .debug_aranges
                0x0000000000458730       0x30 main.o
 .debug_aranges
                0x0000000000458760       0x30 main_blinky.o
 .debug_aranges
                0x0000000000458790       0x30 main_full.o
 .debug_aranges
                0x00000000004587c0       0x30 main_task1.o
 .debug_aranges
                0x00000000004587f0       0x30 main_task2.o
 .debug_aranges
                0x0000000000458820       0x30 main_task3.o
 .debug_aranges
                0x0000000000458850       0x30 main_task4.o
 .debug_aranges
                0x0000000000458880       0x30 K:/embedded/General Tools/General Tools/mingw64/bin/../lib/gcc/x86_64-w64-mingw32/6.2.0/libgcc.a(_chkstk_ms.o)
 .debug_aranges
                0x00000000004588b0       0x20 K:/embedded/General Tools/General Tools/mingw64/bin/../lib/gcc/x86_64-w64-mingw32/6.2.0/libgcc.a(_ctors.o)

.zdebug_aranges
 *(.zdebug_aranges)

.debug_pubnames
 *(.debug_pubnames)

.zdebug_pubnames
 *(.zdebug_pubnames)

.debug_pubtypes
 *(.debug_pubtypes)

.zdebug_pubtypes
 *(.zdebug_pubtypes)

.debug_info     0x0000000000459000   0x10cc00
 *(.debug_info .gnu.linkonce.wi.*)
 .debug_info    0x0000000000459000     0x58fa DemosModifiedForLowTickRate\recmutex.o
 .debug_info    0x000000000045e8fa     0x5f27 FreeRTOS+Trace Recorder\trcKernelPort.o
 .debug_info    0x0000000000464821     0x73d0 FreeRTOS+Trace Recorder\trcSnapshotRecorder.o
 .debug_info    0x000000000046bbf1     0x526a FreeRTOS+Trace Recorder\trcStreamingRecorder.o
 .debug_info    0x0000000000470e5b     0x5239 FreeRTOS_Source\croutine.o
 .debug_info    0x0000000000476094     0x5daa FreeRTOS_Source\event_groups.o
 .debug_info    0x000000000047be3e     0x5542 FreeRTOS_Source\list.o
 .debug_info    0x0000000000481380     0x69da FreeRTOS_Source\portable\MSVC-MingW\port.o
 .debug_info    0x0000000000487d5a     0x5b71 FreeRTOS_Source\portable\MemMang\heap_5.o
 .debug_info    0x000000000048d8cb     0x71b7 FreeRTOS_Source\queue.o
 .debug_info    0x0000000000494a82     0x635b FreeRTOS_Source\stream_buffer.o
 .debug_info    0x000000000049addd     0x80dd FreeRTOS_Source\tasks.o
 .debug_info    0x00000000004a2eba     0x6b8c FreeRTOS_Source\timers.o
 .debug_info    0x00000000004a9a46     0x5743 Run-time-stats-utils.o
 .debug_info    0x00000000004af189     0x6283 Standard_Demo_Tasks\AbortDelay.o
 .debug_info    0x00000000004b540c     0x5958 Standard_Demo_Tasks\BlockQ.o
 .debug_info    0x00000000004bad64     0x5b9e Standard_Demo_Tasks\EventGroupsDemo.o
 .debug_info    0x00000000004c0902     0x5ab4 Standard_Demo_Tasks\GenQTest.o
 .debug_info    0x00000000004c63b6     0x5a22 Standard_Demo_Tasks\IntSemTest.o
 .debug_info    0x00000000004cbdd8     0x58f8 Standard_Demo_Tasks\MessageBufferAMP.o
 .debug_info    0x00000000004d16d0     0x6006 Standard_Demo_Tasks\MessageBufferDemo.o
 .debug_info    0x00000000004d76d6     0x5770 Standard_Demo_Tasks\PollQ.o
 .debug_info    0x00000000004dce46     0x5854 Standard_Demo_Tasks\QPeek.o
 .debug_info    0x00000000004e269a     0x57ca Standard_Demo_Tasks\QueueOverwrite.o
 .debug_info    0x00000000004e7e64     0x5eca Standard_Demo_Tasks\QueueSet.o
 .debug_info    0x00000000004edd2e     0x577b Standard_Demo_Tasks\QueueSetPolling.o
 .debug_info    0x00000000004f34a9     0x65a2 Standard_Demo_Tasks\StaticAllocation.o
 .debug_info    0x00000000004f9a4b     0x62cb Standard_Demo_Tasks\StreamBufferDemo.o
 .debug_info    0x00000000004ffd16     0x57ea Standard_Demo_Tasks\StreamBufferInterrupt.o
 .debug_info    0x0000000000505500     0x5c01 Standard_Demo_Tasks\TaskNotify.o
 .debug_info    0x000000000050b101     0x5d61 Standard_Demo_Tasks\TimerDemo.o
 .debug_info    0x0000000000510e62     0x5911 Standard_Demo_Tasks\blocktim.o
 .debug_info    0x0000000000516773     0x582a Standard_Demo_Tasks\countsem.o
 .debug_info    0x000000000051bf9d     0x57a4 Standard_Demo_Tasks\death.o
 .debug_info    0x0000000000521741     0x59f1 Standard_Demo_Tasks\dynamic.o
 .debug_info    0x0000000000527132     0x58f0 Standard_Demo_Tasks\flop.o
 .debug_info    0x000000000052ca22     0x56bf Standard_Demo_Tasks\integer.o
 .debug_info    0x00000000005320e1     0x5871 Standard_Demo_Tasks\semtest.o
 .debug_info    0x0000000000537952     0x5c93 code_coverage_additions.o
 .debug_info    0x000000000053d5e5     0x5f9f main.o
 .debug_info    0x0000000000543584     0x571b main_blinky.o
 .debug_info    0x0000000000548c9f     0x5fd3 main_full.o
 .debug_info    0x000000000054ec72     0x52fa main_task1.o
 .debug_info    0x0000000000553f6c     0x535f main_task2.o
 .debug_info    0x00000000005592cb     0x536e main_task3.o
 .debug_info    0x000000000055e639     0x5680 main_task4.o
 .debug_info    0x0000000000563cb9       0xbd K:/embedded/General Tools/General Tools/mingw64/bin/../lib/gcc/x86_64-w64-mingw32/6.2.0/libgcc.a(_chkstk_ms.o)
 .debug_info    0x0000000000563d76     0x1d20 K:/embedded/General Tools/General Tools/mingw64/bin/../lib/gcc/x86_64-w64-mingw32/6.2.0/libgcc.a(_ctors.o)

.zdebug_info
 *(.zdebug_info .zdebug.gnu.linkonce.wi.*)

.debug_abbrev   0x0000000000566000     0x7000
 *(.debug_abbrev)
 .debug_abbrev  0x0000000000566000      0x22f DemosModifiedForLowTickRate\recmutex.o
 .debug_abbrev  0x000000000056622f      0x281 FreeRTOS+Trace Recorder\trcKernelPort.o
 .debug_abbrev  0x00000000005664b0      0x399 FreeRTOS+Trace Recorder\trcSnapshotRecorder.o
 .debug_abbrev  0x0000000000566849      0x157 FreeRTOS+Trace Recorder\trcStreamingRecorder.o
 .debug_abbrev  0x00000000005669a0      0x157 FreeRTOS_Source\croutine.o
 .debug_abbrev  0x0000000000566af7      0x28d FreeRTOS_Source\event_groups.o
 .debug_abbrev  0x0000000000566d84      0x1f4 FreeRTOS_Source\list.o
 .debug_abbrev  0x0000000000566f78      0x3cb FreeRTOS_Source\portable\MSVC-MingW\port.o
 .debug_abbrev  0x0000000000567343      0x269 FreeRTOS_Source\portable\MemMang\heap_5.o
 .debug_abbrev  0x00000000005675ac      0x326 FreeRTOS_Source\queue.o
 .debug_abbrev  0x00000000005678d2      0x2cb FreeRTOS_Source\stream_buffer.o
 .debug_abbrev  0x0000000000567b9d      0x378 FreeRTOS_Source\tasks.o
 .debug_abbrev  0x0000000000567f15      0x341 FreeRTOS_Source\timers.o
 .debug_abbrev  0x0000000000568256      0x213 Run-time-stats-utils.o
 .debug_abbrev  0x0000000000568469      0x290 Standard_Demo_Tasks\AbortDelay.o
 .debug_abbrev  0x00000000005686f9      0x235 Standard_Demo_Tasks\BlockQ.o
 .debug_abbrev  0x000000000056892e      0x290 Standard_Demo_Tasks\EventGroupsDemo.o
 .debug_abbrev  0x0000000000568bbe      0x26b Standard_Demo_Tasks\GenQTest.o
 .debug_abbrev  0x0000000000568e29      0x295 Standard_Demo_Tasks\IntSemTest.o
 .debug_abbrev  0x00000000005690be      0x287 Standard_Demo_Tasks\MessageBufferAMP.o
 .debug_abbrev  0x0000000000569345      0x265 Standard_Demo_Tasks\MessageBufferDemo.o
 .debug_abbrev  0x00000000005695aa      0x208 Standard_Demo_Tasks\PollQ.o
 .debug_abbrev  0x00000000005697b2      0x25e Standard_Demo_Tasks\QPeek.o
 .debug_abbrev  0x0000000000569a10      0x222 Standard_Demo_Tasks\QueueOverwrite.o
 .debug_abbrev  0x0000000000569c32      0x2b7 Standard_Demo_Tasks\QueueSet.o
 .debug_abbrev  0x0000000000569ee9      0x213 Standard_Demo_Tasks\QueueSetPolling.o
 .debug_abbrev  0x000000000056a0fc      0x2c0 Standard_Demo_Tasks\StaticAllocation.o
 .debug_abbrev  0x000000000056a3bc      0x27f Standard_Demo_Tasks\StreamBufferDemo.o
 .debug_abbrev  0x000000000056a63b      0x213 Standard_Demo_Tasks\StreamBufferInterrupt.o
 .debug_abbrev  0x000000000056a84e      0x281 Standard_Demo_Tasks\TaskNotify.o
 .debug_abbrev  0x000000000056aacf      0x286 Standard_Demo_Tasks\TimerDemo.o
 .debug_abbrev  0x000000000056ad55      0x24d Standard_Demo_Tasks\blocktim.o
 .debug_abbrev  0x000000000056afa2      0x226 Standard_Demo_Tasks\countsem.o
 .debug_abbrev  0x000000000056b1c8      0x219 Standard_Demo_Tasks\death.o
 .debug_abbrev  0x000000000056b3e1      0x25e Standard_Demo_Tasks\dynamic.o
 .debug_abbrev  0x000000000056b63f      0x274 Standard_Demo_Tasks\flop.o
 .debug_abbrev  0x000000000056b8b3      0x1f9 Standard_Demo_Tasks\integer.o
 .debug_abbrev  0x000000000056baac      0x217 Standard_Demo_Tasks\semtest.o
 .debug_abbrev  0x000000000056bcc3      0x24d code_coverage_additions.o
 .debug_abbrev  0x000000000056bf10      0x2f9 main.o
 .debug_abbrev  0x000000000056c209      0x217 main_blinky.o
 .debug_abbrev  0x000000000056c420      0x298 main_full.o
 .debug_abbrev  0x000000000056c6b8      0x1b6 main_task1.o
 .debug_abbrev  0x000000000056c86e      0x1b6 main_task2.o
 .debug_abbrev  0x000000000056ca24      0x1b6 main_task3.o
 .debug_abbrev  0x000000000056cbda      0x217 main_task4.o
 .debug_abbrev  0x000000000056cdf1       0x14 K:/embedded/General Tools/General Tools/mingw64/bin/../lib/gcc/x86_64-w64-mingw32/6.2.0/libgcc.a(_chkstk_ms.o)
 .debug_abbrev  0x000000000056ce05      0x11b K:/embedded/General Tools/General Tools/mingw64/bin/../lib/gcc/x86_64-w64-mingw32/6.2.0/libgcc.a(_ctors.o)

.zdebug_abbrev
 *(.zdebug_abbrev)

.debug_line     0x000000000056d000    0x39200
 *(.debug_line)
 .debug_line    0x000000000056d000     0x12af DemosModifiedForLowTickRate\recmutex.o
 .debug_line    0x000000000056e2af     0x12ee FreeRTOS+Trace Recorder\trcKernelPort.o
 .debug_line    0x000000000056f59d     0x18f6 FreeRTOS+Trace Recorder\trcSnapshotRecorder.o
 .debug_line    0x0000000000570e93     0x11a2 FreeRTOS+Trace Recorder\trcStreamingRecorder.o
 .debug_line    0x0000000000572035     0x1193 FreeRTOS_Source\croutine.o
 .debug_line    0x00000000005731c8     0x1456 FreeRTOS_Source\event_groups.o
 .debug_line    0x000000000057461e     0x11bb FreeRTOS_Source\list.o
 .debug_line    0x00000000005757d9     0x133b FreeRTOS_Source\portable\MSVC-MingW\port.o
 .debug_line    0x0000000000576b14     0x12af FreeRTOS_Source\portable\MemMang\heap_5.o
 .debug_line    0x0000000000577dc3     0x1b08 FreeRTOS_Source\queue.o
 .debug_line    0x00000000005798cb     0x17a9 FreeRTOS_Source\stream_buffer.o
 .debug_line    0x000000000057b074     0x1dc7 FreeRTOS_Source\tasks.o
 .debug_line    0x000000000057ce3b     0x1511 FreeRTOS_Source\timers.o
 .debug_line    0x000000000057e34c     0x1199 Run-time-stats-utils.o
 .debug_line    0x000000000057f4e5     0x136d Standard_Demo_Tasks\AbortDelay.o
 .debug_line    0x0000000000580852     0x126b Standard_Demo_Tasks\BlockQ.o
 .debug_line    0x0000000000581abd     0x1432 Standard_Demo_Tasks\EventGroupsDemo.o
 .debug_line    0x0000000000582eef     0x13e8 Standard_Demo_Tasks\GenQTest.o
 .debug_line    0x00000000005842d7     0x1326 Standard_Demo_Tasks\IntSemTest.o
 .debug_line    0x00000000005855fd     0x12cb Standard_Demo_Tasks\MessageBufferAMP.o
 .debug_line    0x00000000005868c8     0x159b Standard_Demo_Tasks\MessageBufferDemo.o
 .debug_line    0x0000000000587e63     0x1246 Standard_Demo_Tasks\PollQ.o
 .debug_line    0x00000000005890a9     0x1292 Standard_Demo_Tasks\QPeek.o
 .debug_line    0x000000000058a33b     0x127a Standard_Demo_Tasks\QueueOverwrite.o
 .debug_line    0x000000000058b5b5     0x1441 Standard_Demo_Tasks\QueueSet.o
 .debug_line    0x000000000058c9f6     0x1234 Standard_Demo_Tasks\QueueSetPolling.o
 .debug_line    0x000000000058dc2a     0x14d3 Standard_Demo_Tasks\StaticAllocation.o
 .debug_line    0x000000000058f0fd     0x162c Standard_Demo_Tasks\StreamBufferDemo.o
 .debug_line    0x0000000000590729     0x1279 Standard_Demo_Tasks\StreamBufferInterrupt.o
 .debug_line    0x00000000005919a2     0x14e8 Standard_Demo_Tasks\TaskNotify.o
 .debug_line    0x0000000000592e8a     0x16d7 Standard_Demo_Tasks\TimerDemo.o
 .debug_line    0x0000000000594561     0x132d Standard_Demo_Tasks\blocktim.o
 .debug_line    0x000000000059588e     0x12a8 Standard_Demo_Tasks\countsem.o
 .debug_line    0x0000000000596b36     0x1230 Standard_Demo_Tasks\death.o
 .debug_line    0x0000000000597d66     0x12cb Standard_Demo_Tasks\dynamic.o
 .debug_line    0x0000000000599031     0x12cd Standard_Demo_Tasks\flop.o
 .debug_line    0x000000000059a2fe     0x122c Standard_Demo_Tasks\integer.o
 .debug_line    0x000000000059b52a     0x1279 Standard_Demo_Tasks\semtest.o
 .debug_line    0x000000000059c7a3     0x1322 code_coverage_additions.o
 .debug_line    0x000000000059dac5     0x12e3 main.o
 .debug_line    0x000000000059eda8     0x120f main_blinky.o
 .debug_line    0x000000000059ffb7     0x15fa main_full.o
 .debug_line    0x00000000005a15b1     0x1203 main_task1.o
 .debug_line    0x00000000005a27b4     0x121c main_task2.o
 .debug_line    0x00000000005a39d0     0x121c main_task3.o
 .debug_line    0x00000000005a4bec     0x124d main_task4.o
 .debug_line    0x00000000005a5e39       0x7b K:/embedded/General Tools/General Tools/mingw64/bin/../lib/gcc/x86_64-w64-mingw32/6.2.0/libgcc.a(_chkstk_ms.o)
 .debug_line    0x00000000005a5eb4      0x1a7 K:/embedded/General Tools/General Tools/mingw64/bin/../lib/gcc/x86_64-w64-mingw32/6.2.0/libgcc.a(_ctors.o)

.zdebug_line
 *(.zdebug_line)

.debug_frame    0x00000000005a7000     0x5c00
 *(.debug_frame)
 .debug_frame   0x00000000005a7000       0xc8 DemosModifiedForLowTickRate\recmutex.o
 .debug_frame   0x00000000005a70c8      0x540 FreeRTOS+Trace Recorder\trcKernelPort.o
 .debug_frame   0x00000000005a7608      0xa10 FreeRTOS+Trace Recorder\trcSnapshotRecorder.o
 .debug_frame   0x00000000005a8018      0x270 FreeRTOS_Source\event_groups.o
 .debug_frame   0x00000000005a8288       0xe0 FreeRTOS_Source\list.o
 .debug_frame   0x00000000005a8368      0x230 FreeRTOS_Source\portable\MSVC-MingW\port.o
 .debug_frame   0x00000000005a8598      0x130 FreeRTOS_Source\portable\MemMang\heap_5.o
 .debug_frame   0x00000000005a86c8      0x818 FreeRTOS_Source\queue.o
 .debug_frame   0x00000000005a8ee0      0x450 FreeRTOS_Source\stream_buffer.o
 .debug_frame   0x00000000005a9330      0xbb0 FreeRTOS_Source\tasks.o
 .debug_frame   0x00000000005a9ee0      0x448 FreeRTOS_Source\timers.o
 .debug_frame   0x00000000005aa328       0x68 Run-time-stats-utils.o
 .debug_frame   0x00000000005aa390      0x238 Standard_Demo_Tasks\AbortDelay.o
 .debug_frame   0x00000000005aa5c8       0xa8 Standard_Demo_Tasks\BlockQ.o
 .debug_frame   0x00000000005aa670      0x190 Standard_Demo_Tasks\EventGroupsDemo.o
 .debug_frame   0x00000000005aa800      0x170 Standard_Demo_Tasks\GenQTest.o
 .debug_frame   0x00000000005aa970      0x140 Standard_Demo_Tasks\IntSemTest.o
 .debug_frame   0x00000000005aaab0       0xf8 Standard_Demo_Tasks\MessageBufferAMP.o
 .debug_frame   0x00000000005aaba8      0x150 Standard_Demo_Tasks\MessageBufferDemo.o
 .debug_frame   0x00000000005aacf8       0xa8 Standard_Demo_Tasks\PollQ.o
 .debug_frame   0x00000000005aada0       0xe8 Standard_Demo_Tasks\QPeek.o
 .debug_frame   0x00000000005aae88       0xb0 Standard_Demo_Tasks\QueueOverwrite.o
 .debug_frame   0x00000000005aaf38      0x288 Standard_Demo_Tasks\QueueSet.o
 .debug_frame   0x00000000005ab1c0       0xb0 Standard_Demo_Tasks\QueueSetPolling.o
 .debug_frame   0x00000000005ab270      0x308 Standard_Demo_Tasks\StaticAllocation.o
 .debug_frame   0x00000000005ab578      0x1c0 Standard_Demo_Tasks\StreamBufferDemo.o
 .debug_frame   0x00000000005ab738       0xb0 Standard_Demo_Tasks\StreamBufferInterrupt.o
 .debug_frame   0x00000000005ab7e8      0x150 Standard_Demo_Tasks\TaskNotify.o
 .debug_frame   0x00000000005ab938      0x268 Standard_Demo_Tasks\TimerDemo.o
 .debug_frame   0x00000000005abba0       0xd0 Standard_Demo_Tasks\blocktim.o
 .debug_frame   0x00000000005abc70       0xd8 Standard_Demo_Tasks\countsem.o
 .debug_frame   0x00000000005abd48       0xa8 Standard_Demo_Tasks\death.o
 .debug_frame   0x00000000005abdf0      0x108 Standard_Demo_Tasks\dynamic.o
 .debug_frame   0x00000000005abef8       0xe8 Standard_Demo_Tasks\flop.o
 .debug_frame   0x00000000005abfe0       0x88 Standard_Demo_Tasks\integer.o
 .debug_frame   0x00000000005ac068       0x88 Standard_Demo_Tasks\semtest.o
 .debug_frame   0x00000000005ac0f0      0x190 code_coverage_additions.o
 .debug_frame   0x00000000005ac280      0x238 main.o
 .debug_frame   0x00000000005ac4b8       0xa0 main_blinky.o
 .debug_frame   0x00000000005ac558      0x270 main_full.o
 .debug_frame   0x00000000005ac7c8       0x78 main_task1.o
 .debug_frame   0x00000000005ac840       0x98 main_task2.o
 .debug_frame   0x00000000005ac8d8       0x98 main_task3.o
 .debug_frame   0x00000000005ac970       0x78 main_task4.o
 .debug_frame   0x00000000005ac9e8       0x48 K:/embedded/General Tools/General Tools/mingw64/bin/../lib/gcc/x86_64-w64-mingw32/6.2.0/libgcc.a(_chkstk_ms.o)

.zdebug_frame
 *(.zdebug_frame)

.debug_str      0x00000000005ad000     0x1400
 *(.debug_str)
 .debug_str     0x00000000005ad000       0x16 DemosModifiedForLowTickRate\recmutex.o
 .debug_str     0x00000000005ad016       0x22 FreeRTOS+Trace Recorder\trcKernelPort.o
 .debug_str     0x00000000005ad038       0xcd FreeRTOS+Trace Recorder\trcSnapshotRecorder.o
 .debug_str     0x00000000005ad105        0x9 FreeRTOS+Trace Recorder\trcStreamingRecorder.o
 .debug_str     0x00000000005ad10e        0x9 FreeRTOS_Source\croutine.o
 .debug_str     0x00000000005ad117      0x113 FreeRTOS_Source\event_groups.o
 .debug_str     0x00000000005ad22a       0x34 FreeRTOS_Source\list.o
 .debug_str     0x00000000005ad25e      0x1f2 FreeRTOS_Source\portable\MSVC-MingW\port.o
 .debug_str     0x00000000005ad450       0x60 FreeRTOS_Source\portable\MemMang\heap_5.o
 .debug_str     0x00000000005ad4b0      0x210 FreeRTOS_Source\queue.o
 .debug_str     0x00000000005ad6c0      0x171 FreeRTOS_Source\stream_buffer.o
 .debug_str     0x00000000005ad831      0x238 FreeRTOS_Source\tasks.o
 .debug_str     0x00000000005ada69      0x165 FreeRTOS_Source\timers.o
 .debug_str     0x00000000005adbce       0x44 Run-time-stats-utils.o
 .debug_str     0x00000000005adc12       0x4f Standard_Demo_Tasks\AbortDelay.o
 .debug_str     0x00000000005adc61       0x46 Standard_Demo_Tasks\BlockQ.o
 .debug_str     0x00000000005adca7       0x3d Standard_Demo_Tasks\EventGroupsDemo.o
 .debug_str     0x00000000005adce4       0x29 Standard_Demo_Tasks\GenQTest.o
 .debug_str     0x00000000005add0d       0x16 Standard_Demo_Tasks\IntSemTest.o
 .debug_str     0x00000000005add23       0x38 Standard_Demo_Tasks\MessageBufferAMP.o
 .debug_str     0x00000000005add5b       0x83 Standard_Demo_Tasks\MessageBufferDemo.o
 .debug_str     0x00000000005addde       0x16 Standard_Demo_Tasks\PollQ.o
 .debug_str     0x00000000005addf4       0x25 Standard_Demo_Tasks\QPeek.o
 .debug_str     0x00000000005ade19       0x17 Standard_Demo_Tasks\QueueOverwrite.o
 .debug_str     0x00000000005ade30       0xb4 Standard_Demo_Tasks\QueueSet.o
 .debug_str     0x00000000005adee4        0x9 Standard_Demo_Tasks\QueueSetPolling.o
 .debug_str     0x00000000005adeed       0x7e Standard_Demo_Tasks\StaticAllocation.o
 .debug_str     0x00000000005adf6b       0xa6 Standard_Demo_Tasks\StreamBufferDemo.o
 .debug_str     0x00000000005ae011        0x9 Standard_Demo_Tasks\StreamBufferInterrupt.o
 .debug_str     0x00000000005ae01a       0x19 Standard_Demo_Tasks\TaskNotify.o
 .debug_str     0x00000000005ae033       0x20 Standard_Demo_Tasks\TimerDemo.o
 .debug_str     0x00000000005ae053       0x35 Standard_Demo_Tasks\blocktim.o
 .debug_str     0x00000000005ae088       0x23 Standard_Demo_Tasks\countsem.o
 .debug_str     0x00000000005ae0ab       0x21 Standard_Demo_Tasks\death.o
 .debug_str     0x00000000005ae0cc       0x21 Standard_Demo_Tasks\dynamic.o
 .debug_str     0x00000000005ae0ed       0x53 Standard_Demo_Tasks\flop.o
 .debug_str     0x00000000005ae140        0x9 Standard_Demo_Tasks\integer.o
 .debug_str     0x00000000005ae149       0x26 Standard_Demo_Tasks\semtest.o
 .debug_str     0x00000000005ae16f       0x2b code_coverage_additions.o
 .debug_str     0x00000000005ae19a       0x1f main.o
 .debug_str     0x00000000005ae1b9       0x3d main_blinky.o
 .debug_str     0x00000000005ae1f6       0x7b main_full.o
 .debug_str     0x00000000005ae271       0x14 main_task1.o
 .debug_str     0x00000000005ae285       0x14 main_task2.o
 .debug_str     0x00000000005ae299       0x14 main_task3.o
 .debug_str     0x00000000005ae2ad       0x14 main_task4.o
 .debug_str     0x00000000005ae2c1        0x0 K:/embedded/General Tools/General Tools/mingw64/bin/../lib/gcc/x86_64-w64-mingw32/6.2.0/libgcc.a(_ctors.o)

.zdebug_str
 *(.zdebug_str)

.debug_loc
 *(.debug_loc)

.zdebug_loc
 *(.zdebug_loc)

.debug_macinfo
 *(.debug_macinfo)

.zdebug_macinfo
 *(.zdebug_macinfo)

.debug_weaknames
 *(.debug_weaknames)

.zdebug_weaknames
 *(.zdebug_weaknames)

.debug_funcnames
 *(.debug_funcnames)

.zdebug_funcnames
 *(.zdebug_funcnames)

.debug_typenames
 *(.debug_typenames)

.zdebug_typenames
 *(.zdebug_typenames)

.debug_varnames
 *(.debug_varnames)

.zdebug_varnames
 *(.zdebug_varnames)

.debug_macro    0x00000000005af000  0x34ef600
 *(.debug_macro)
 .debug_macro   0x00000000005af000   0x127176 DemosModifiedForLowTickRate\recmutex.o
 .debug_macro   0x00000000006d6176   0x127055 FreeRTOS+Trace Recorder\trcKernelPort.o
 .debug_macro   0x00000000007fd1cb   0x125cce FreeRTOS+Trace Recorder\trcSnapshotRecorder.o
 .debug_macro   0x0000000000922e99   0x125c51 FreeRTOS+Trace Recorder\trcStreamingRecorder.o
 .debug_macro   0x0000000000a48aea   0x126458 FreeRTOS_Source\croutine.o
 .debug_macro   0x0000000000b6ef42   0x126403 FreeRTOS_Source\event_groups.o
 .debug_macro   0x0000000000c95345   0x1253ee FreeRTOS_Source\list.o
 .debug_macro   0x0000000000dba733   0x125fc9 FreeRTOS_Source\portable\MSVC-MingW\port.o
 .debug_macro   0x0000000000ee06fc   0x125b68 FreeRTOS_Source\portable\MemMang\heap_5.o
 .debug_macro   0x0000000001006264   0x12654b FreeRTOS_Source\queue.o
 .debug_macro   0x000000000112c7af   0x12665f FreeRTOS_Source\stream_buffer.o
 .debug_macro   0x0000000001252e0e   0x126a8f FreeRTOS_Source\tasks.o
 .debug_macro   0x000000000137989d   0x126beb FreeRTOS_Source\timers.o
 .debug_macro   0x00000000014a0488   0x124fa6 Run-time-stats-utils.o
 .debug_macro   0x00000000015c542e   0x127b75 Standard_Demo_Tasks\AbortDelay.o
 .debug_macro   0x00000000016ecfa3   0x126331 Standard_Demo_Tasks\BlockQ.o
 .debug_macro   0x00000000018132d4   0x126a7d Standard_Demo_Tasks\EventGroupsDemo.o
 .debug_macro   0x0000000001939d51   0x126e4e Standard_Demo_Tasks\GenQTest.o
 .debug_macro   0x0000000001a60b9f   0x126d61 Standard_Demo_Tasks\IntSemTest.o
 .debug_macro   0x0000000001b87900   0x126a30 Standard_Demo_Tasks\MessageBufferAMP.o
 .debug_macro   0x0000000001cae330   0x126afa Standard_Demo_Tasks\MessageBufferDemo.o
 .debug_macro   0x0000000001dd4e2a   0x126445 Standard_Demo_Tasks\PollQ.o
 .debug_macro   0x0000000001efb26f   0x126db7 Standard_Demo_Tasks\QPeek.o
 .debug_macro   0x0000000002022026   0x1266a6 Standard_Demo_Tasks\QueueOverwrite.o
 .debug_macro   0x00000000021486cc   0x12650d Standard_Demo_Tasks\QueueSet.o
 .debug_macro   0x000000000226ebd9   0x126349 Standard_Demo_Tasks\QueueSetPolling.o
 .debug_macro   0x0000000002394f22   0x1279ad Standard_Demo_Tasks\StaticAllocation.o
 .debug_macro   0x00000000024bc8cf   0x1261d8 Standard_Demo_Tasks\StreamBufferDemo.o
 .debug_macro   0x00000000025e2aa7   0x126082 Standard_Demo_Tasks\StreamBufferInterrupt.o
 .debug_macro   0x0000000002708b29   0x126786 Standard_Demo_Tasks\TaskNotify.o
 .debug_macro   0x000000000282f2af   0x126732 Standard_Demo_Tasks\TimerDemo.o
 .debug_macro   0x00000000029559e1   0x12681d Standard_Demo_Tasks\blocktim.o
 .debug_macro   0x0000000002a7c1fe   0x1270e2 Standard_Demo_Tasks\countsem.o
 .debug_macro   0x0000000002ba32e0   0x125b00 Standard_Demo_Tasks\death.o
 .debug_macro   0x0000000002cc8de0   0x126dc2 Standard_Demo_Tasks\dynamic.o
 .debug_macro   0x0000000002defba2   0x126869 Standard_Demo_Tasks\flop.o
 .debug_macro   0x0000000002f1640b   0x125bdf Standard_Demo_Tasks\integer.o
 .debug_macro   0x000000000303bfea   0x126d90 Standard_Demo_Tasks\semtest.o
 .debug_macro   0x0000000003162d7a   0x12837d code_coverage_additions.o
 .debug_macro   0x000000000328b0f7   0x125b7c main.o
 .debug_macro   0x00000000033b0c73   0x1279bf main_blinky.o
 .debug_macro   0x00000000034d8632   0x12791d main_full.o
 .debug_macro   0x00000000035fff4f   0x12790b main_task1.o
 .debug_macro   0x000000000372785a   0x12796e main_task2.o
 .debug_macro   0x000000000384f1c8   0x127977 main_task3.o
 .debug_macro   0x0000000003976b3f   0x1278ec main_task4.o

.zdebug_macro
 *(.zdebug_macro)

.debug_ranges   0x0000000003a9f000      0x200
 *(.debug_ranges)
 .debug_ranges  0x0000000003a9f000       0x30 main.o

.zdebug_ranges
 *(.zdebug_ranges)

.debug_types
 *(.debug_types .gnu.linkonce.wt.*)

.zdebug_types
 *(.zdebug_types .zdebug.gnu.linkonce.wt.*)
OUTPUT(RTOSDemo.exe pei-x86-64)
